ARM GAS  /var/folders/xw/ncjdtmf133b976k652zsj0500000gn/T//ccftb7wq.s 			page 1


   1              		.cpu cortex-m3
   2              		.eabi_attribute 20, 1
   3              		.eabi_attribute 21, 1
   4              		.eabi_attribute 23, 3
   5              		.eabi_attribute 24, 1
   6              		.eabi_attribute 25, 1
   7              		.eabi_attribute 26, 1
   8              		.eabi_attribute 30, 1
   9              		.eabi_attribute 34, 1
  10              		.eabi_attribute 18, 4
  11              		.file	"keyboard_matrix.c"
  12              		.text
  13              	.Ltext0:
  14              		.cfi_sections	.debug_frame
  15              		.section	.text.kbm_init,"ax",%progbits
  16              		.align	1
  17              		.global	kbm_init
  18              		.syntax unified
  19              		.thumb
  20              		.thumb_func
  21              		.fpu softvfp
  23              	kbm_init:
  24              	.LFB66:
  25              		.file 1 "Src/driver/keyboard_matrix.c"
   1:Src/driver/keyboard_matrix.c **** #include "keyboard_matrix.h"
   2:Src/driver/keyboard_matrix.c **** #include "stm32f1xx_hal.h"
   3:Src/driver/keyboard_matrix.c **** 
   4:Src/driver/keyboard_matrix.c **** void kbm_init(){
  26              		.loc 1 4 0
  27              		.cfi_startproc
  28              		@ args = 0, pretend = 0, frame = 24
  29              		@ frame_needed = 0, uses_anonymous_args = 0
  30 0000 30B5     		push	{r4, r5, lr}
  31              	.LCFI0:
  32              		.cfi_def_cfa_offset 12
  33              		.cfi_offset 4, -12
  34              		.cfi_offset 5, -8
  35              		.cfi_offset 14, -4
  36 0002 87B0     		sub	sp, sp, #28
  37              	.LCFI1:
  38              		.cfi_def_cfa_offset 40
  39              	.LBB2:
   5:Src/driver/keyboard_matrix.c ****     __HAL_RCC_GPIOA_CLK_ENABLE();
  40              		.loc 1 5 0
  41 0004 104B     		ldr	r3, .L3
  42 0006 9A69     		ldr	r2, [r3, #24]
  43 0008 42F00402 		orr	r2, r2, #4
  44 000c 9A61     		str	r2, [r3, #24]
  45 000e 9B69     		ldr	r3, [r3, #24]
  46 0010 03F00403 		and	r3, r3, #4
  47 0014 0193     		str	r3, [sp, #4]
  48 0016 019B     		ldr	r3, [sp, #4]
  49              	.LBE2:
   6:Src/driver/keyboard_matrix.c ****     GPIO_InitTypeDef gpioconf;
   7:Src/driver/keyboard_matrix.c ****     gpioconf.Pin = KBM_ROW1 | KBM_ROW2 | KBM_ROW3 | KBM_ROW4;
  50              		.loc 1 7 0
  51 0018 7823     		movs	r3, #120
ARM GAS  /var/folders/xw/ncjdtmf133b976k652zsj0500000gn/T//ccftb7wq.s 			page 2


  52 001a 0293     		str	r3, [sp, #8]
   8:Src/driver/keyboard_matrix.c ****     gpioconf.Mode = GPIO_MODE_OUTPUT_PP;
  53              		.loc 1 8 0
  54 001c 0123     		movs	r3, #1
  55 001e 0393     		str	r3, [sp, #12]
   9:Src/driver/keyboard_matrix.c ****     gpioconf.Pull = GPIO_NOPULL;
  56              		.loc 1 9 0
  57 0020 0024     		movs	r4, #0
  58 0022 0494     		str	r4, [sp, #16]
  10:Src/driver/keyboard_matrix.c ****     gpioconf.Speed = GPIO_SPEED_FREQ_HIGH;
  59              		.loc 1 10 0
  60 0024 0323     		movs	r3, #3
  61 0026 0593     		str	r3, [sp, #20]
  11:Src/driver/keyboard_matrix.c ****     HAL_GPIO_Init(KBM_GPIO, &gpioconf);
  62              		.loc 1 11 0
  63 0028 084D     		ldr	r5, .L3+4
  64 002a 02A9     		add	r1, sp, #8
  65 002c 2846     		mov	r0, r5
  66 002e FFF7FEFF 		bl	HAL_GPIO_Init
  67              	.LVL0:
  12:Src/driver/keyboard_matrix.c **** 
  13:Src/driver/keyboard_matrix.c ****     gpioconf.Pin = KBM_COLLUM1 | KBM_COLLUM2 | KBM_COLLUM3;
  68              		.loc 1 13 0
  69 0032 0723     		movs	r3, #7
  70 0034 0293     		str	r3, [sp, #8]
  14:Src/driver/keyboard_matrix.c ****     gpioconf.Mode = GPIO_MODE_INPUT;
  71              		.loc 1 14 0
  72 0036 0394     		str	r4, [sp, #12]
  15:Src/driver/keyboard_matrix.c ****     gpioconf.Pull = GPIO_NOPULL;
  73              		.loc 1 15 0
  74 0038 0494     		str	r4, [sp, #16]
  16:Src/driver/keyboard_matrix.c ****     HAL_GPIO_Init(KBM_GPIO, &gpioconf);
  75              		.loc 1 16 0
  76 003a 02A9     		add	r1, sp, #8
  77 003c 2846     		mov	r0, r5
  78 003e FFF7FEFF 		bl	HAL_GPIO_Init
  79              	.LVL1:
  17:Src/driver/keyboard_matrix.c **** }
  80              		.loc 1 17 0
  81 0042 07B0     		add	sp, sp, #28
  82              	.LCFI2:
  83              		.cfi_def_cfa_offset 12
  84              		@ sp needed
  85 0044 30BD     		pop	{r4, r5, pc}
  86              	.L4:
  87 0046 00BF     		.align	2
  88              	.L3:
  89 0048 00100240 		.word	1073876992
  90 004c 00080140 		.word	1073809408
  91              		.cfi_endproc
  92              	.LFE66:
  94              		.section	.text.kbm_scan,"ax",%progbits
  95              		.align	1
  96              		.global	kbm_scan
  97              		.syntax unified
  98              		.thumb
  99              		.thumb_func
ARM GAS  /var/folders/xw/ncjdtmf133b976k652zsj0500000gn/T//ccftb7wq.s 			page 3


 100              		.fpu softvfp
 102              	kbm_scan:
 103              	.LFB67:
  18:Src/driver/keyboard_matrix.c **** 
  19:Src/driver/keyboard_matrix.c **** void kbm_scan(uint8_t *scancodes){
 104              		.loc 1 19 0
 105              		.cfi_startproc
 106              		@ args = 0, pretend = 0, frame = 0
 107              		@ frame_needed = 0, uses_anonymous_args = 0
 108              		@ link register save eliminated.
 109              	.LVL2:
  20:Src/driver/keyboard_matrix.c ****     // Clear pins
  21:Src/driver/keyboard_matrix.c ****     KBM_GPIO -> BRR = KBM_ROW1 | KBM_ROW2 | KBM_ROW3 | KBM_ROW4;
 110              		.loc 1 21 0
 111 0000 0F4B     		ldr	r3, .L6
 112 0002 7822     		movs	r2, #120
 113 0004 5A61     		str	r2, [r3, #20]
  22:Src/driver/keyboard_matrix.c ****     // Set col1 high
  23:Src/driver/keyboard_matrix.c ****     KBM_GPIO -> BSRR = KBM_ROW1;
 114              		.loc 1 23 0
 115 0006 0821     		movs	r1, #8
 116 0008 1961     		str	r1, [r3, #16]
  24:Src/driver/keyboard_matrix.c ****     // Read GPIOA value
  25:Src/driver/keyboard_matrix.c ****     scancodes[0] = KBM_GPIO -> IDR & 0x7F;
 117              		.loc 1 25 0
 118 000a 9968     		ldr	r1, [r3, #8]
 119 000c 01F07F01 		and	r1, r1, #127
 120 0010 0170     		strb	r1, [r0]
  26:Src/driver/keyboard_matrix.c **** 
  27:Src/driver/keyboard_matrix.c ****    // Clear pins
  28:Src/driver/keyboard_matrix.c ****     KBM_GPIO -> BRR = KBM_ROW1 | KBM_ROW2 | KBM_ROW3 | KBM_ROW4;
 121              		.loc 1 28 0
 122 0012 5A61     		str	r2, [r3, #20]
  29:Src/driver/keyboard_matrix.c ****     // Set col1 high
  30:Src/driver/keyboard_matrix.c ****     KBM_GPIO -> BSRR = KBM_ROW2;
 123              		.loc 1 30 0
 124 0014 1021     		movs	r1, #16
 125 0016 1961     		str	r1, [r3, #16]
  31:Src/driver/keyboard_matrix.c ****     // Read GPIOA value
  32:Src/driver/keyboard_matrix.c ****     scancodes[1] = KBM_GPIO -> IDR & 0x7F;
 126              		.loc 1 32 0
 127 0018 9968     		ldr	r1, [r3, #8]
 128 001a 01F07F01 		and	r1, r1, #127
 129 001e 4170     		strb	r1, [r0, #1]
  33:Src/driver/keyboard_matrix.c **** 
  34:Src/driver/keyboard_matrix.c ****     // Clear pins
  35:Src/driver/keyboard_matrix.c ****     KBM_GPIO -> BRR = KBM_ROW1 | KBM_ROW2 | KBM_ROW3 | KBM_ROW4;
 130              		.loc 1 35 0
 131 0020 5A61     		str	r2, [r3, #20]
  36:Src/driver/keyboard_matrix.c ****     // Set col1 high
  37:Src/driver/keyboard_matrix.c ****     KBM_GPIO -> BSRR = KBM_ROW3;
 132              		.loc 1 37 0
 133 0022 2021     		movs	r1, #32
 134 0024 1961     		str	r1, [r3, #16]
  38:Src/driver/keyboard_matrix.c ****     // Read GPIOA value
  39:Src/driver/keyboard_matrix.c ****     scancodes[2] = KBM_GPIO -> IDR & 0x7F;
 135              		.loc 1 39 0
ARM GAS  /var/folders/xw/ncjdtmf133b976k652zsj0500000gn/T//ccftb7wq.s 			page 4


 136 0026 9968     		ldr	r1, [r3, #8]
 137 0028 01F07F01 		and	r1, r1, #127
 138 002c 8170     		strb	r1, [r0, #2]
  40:Src/driver/keyboard_matrix.c **** 
  41:Src/driver/keyboard_matrix.c ****     // Clear pins
  42:Src/driver/keyboard_matrix.c ****     KBM_GPIO -> BRR = KBM_ROW1 | KBM_ROW2 | KBM_ROW3 | KBM_ROW4;
 139              		.loc 1 42 0
 140 002e 5A61     		str	r2, [r3, #20]
  43:Src/driver/keyboard_matrix.c ****     // Set col1 high
  44:Src/driver/keyboard_matrix.c ****     KBM_GPIO -> BSRR = KBM_ROW4;
 141              		.loc 1 44 0
 142 0030 4021     		movs	r1, #64
 143 0032 1961     		str	r1, [r3, #16]
  45:Src/driver/keyboard_matrix.c ****     // Read GPIOA value
  46:Src/driver/keyboard_matrix.c ****     scancodes[3] = KBM_GPIO -> IDR & 0x7F;
 144              		.loc 1 46 0
 145 0034 9968     		ldr	r1, [r3, #8]
 146 0036 01F07F01 		and	r1, r1, #127
 147 003a C170     		strb	r1, [r0, #3]
  47:Src/driver/keyboard_matrix.c **** 
  48:Src/driver/keyboard_matrix.c ****     // Clear pins
  49:Src/driver/keyboard_matrix.c ****     KBM_GPIO -> BRR = KBM_ROW1 | KBM_ROW2 | KBM_ROW3 | KBM_ROW4;
 148              		.loc 1 49 0
 149 003c 5A61     		str	r2, [r3, #20]
  50:Src/driver/keyboard_matrix.c **** }
 150              		.loc 1 50 0
 151 003e 7047     		bx	lr
 152              	.L7:
 153              		.align	2
 154              	.L6:
 155 0040 00080140 		.word	1073809408
 156              		.cfi_endproc
 157              	.LFE67:
 159              		.section	.text.kbm_getValue,"ax",%progbits
 160              		.align	1
 161              		.global	kbm_getValue
 162              		.syntax unified
 163              		.thumb
 164              		.thumb_func
 165              		.fpu softvfp
 167              	kbm_getValue:
 168              	.LFB68:
  51:Src/driver/keyboard_matrix.c **** // Return the pressed key 
  52:Src/driver/keyboard_matrix.c **** uint8_t kbm_getValue(){
 169              		.loc 1 52 0
 170              		.cfi_startproc
 171              		@ args = 0, pretend = 0, frame = 16
 172              		@ frame_needed = 0, uses_anonymous_args = 0
 173 0000 10B5     		push	{r4, lr}
 174              	.LCFI3:
 175              		.cfi_def_cfa_offset 8
 176              		.cfi_offset 4, -8
 177              		.cfi_offset 14, -4
 178 0002 84B0     		sub	sp, sp, #16
 179              	.LCFI4:
 180              		.cfi_def_cfa_offset 24
  53:Src/driver/keyboard_matrix.c ****     uint8_t scan_lookup[] = {0x45, 0x0E, 0x0D, 0x0B, 0x16, 0x15, 0x13, 0x26, 0x25, 0x23, 0x46, 0x43
ARM GAS  /var/folders/xw/ncjdtmf133b976k652zsj0500000gn/T//ccftb7wq.s 			page 5


 181              		.loc 1 53 0
 182 0004 174B     		ldr	r3, .L21
 183 0006 93E80700 		ldm	r3, {r0, r1, r2}
 184 000a 04AB     		add	r3, sp, #16
 185 000c 03E90700 		stmdb	r3, {r0, r1, r2}
  54:Src/driver/keyboard_matrix.c ****     uint8_t scancodes[4];
  55:Src/driver/keyboard_matrix.c ****     uint8_t key;
  56:Src/driver/keyboard_matrix.c ****     kbm_scan(&scancodes[0]);
 186              		.loc 1 56 0
 187 0010 6846     		mov	r0, sp
 188 0012 FFF7FEFF 		bl	kbm_scan
 189              	.LVL3:
 190              	.LBB3:
  57:Src/driver/keyboard_matrix.c ****     uint8_t validscancode = 0xFF;
  58:Src/driver/keyboard_matrix.c ****     for(uint8_t i = 0; i < 4; i++){
 191              		.loc 1 58 0
 192 0016 0023     		movs	r3, #0
 193              	.LBE3:
  57:Src/driver/keyboard_matrix.c ****     uint8_t validscancode = 0xFF;
 194              		.loc 1 57 0
 195 0018 FF20     		movs	r0, #255
 196              	.LBB4:
 197              		.loc 1 58 0
 198 001a 01E0     		b	.L9
 199              	.LVL4:
 200              	.L10:
 201              		.loc 1 58 0 is_stmt 0 discriminator 2
 202 001c 0133     		adds	r3, r3, #1
 203              	.LVL5:
 204 001e DBB2     		uxtb	r3, r3
 205              	.LVL6:
 206              	.L9:
 207              		.loc 1 58 0 discriminator 1
 208 0020 032B     		cmp	r3, #3
 209 0022 0AD8     		bhi	.L20
  59:Src/driver/keyboard_matrix.c ****         if((scancodes[i] & 0x07) != 0x07){
 210              		.loc 1 59 0 is_stmt 1
 211 0024 04AA     		add	r2, sp, #16
 212 0026 1A44     		add	r2, r2, r3
 213 0028 12F8102C 		ldrb	r2, [r2, #-16]	@ zero_extendqisi2
 214 002c 02F00701 		and	r1, r2, #7
 215 0030 0729     		cmp	r1, #7
 216 0032 F3D0     		beq	.L10
  60:Src/driver/keyboard_matrix.c ****             validscancode = scancodes[i];
 217              		.loc 1 60 0
 218 0034 1046     		mov	r0, r2
 219              	.LVL7:
  61:Src/driver/keyboard_matrix.c ****             i = 4;                          //stop looping
 220              		.loc 1 61 0
 221 0036 0423     		movs	r3, #4
 222              	.LVL8:
 223 0038 F0E7     		b	.L10
 224              	.LVL9:
 225              	.L20:
 226              	.LBE4:
  62:Src/driver/keyboard_matrix.c ****         }
  63:Src/driver/keyboard_matrix.c ****     }
ARM GAS  /var/folders/xw/ncjdtmf133b976k652zsj0500000gn/T//ccftb7wq.s 			page 6


  64:Src/driver/keyboard_matrix.c ****     if(validscancode == 0xFF){
 227              		.loc 1 64 0
 228 003a FF28     		cmp	r0, #255
 229 003c 0ED0     		beq	.L17
 230              	.LBB5:
  65:Src/driver/keyboard_matrix.c ****         return validscancode;
  66:Src/driver/keyboard_matrix.c ****     }
  67:Src/driver/keyboard_matrix.c **** 
  68:Src/driver/keyboard_matrix.c ****     //get key by scancode
  69:Src/driver/keyboard_matrix.c ****     for(uint8_t i = 0; i < 12; i++){
 231              		.loc 1 69 0
 232 003e 0023     		movs	r3, #0
 233              	.LVL10:
 234 0040 01E0     		b	.L13
 235              	.LVL11:
 236              	.L14:
 237              		.loc 1 69 0 is_stmt 0 discriminator 2
 238 0042 0133     		adds	r3, r3, #1
 239              	.LVL12:
 240 0044 DBB2     		uxtb	r3, r3
 241              	.LVL13:
 242              	.L13:
 243              		.loc 1 69 0 discriminator 1
 244 0046 0B2B     		cmp	r3, #11
 245 0048 09D8     		bhi	.L12
  70:Src/driver/keyboard_matrix.c ****         if(scan_lookup[i] == validscancode){
 246              		.loc 1 70 0 is_stmt 1
 247 004a 04AA     		add	r2, sp, #16
 248 004c 1A44     		add	r2, r2, r3
 249 004e 12F80C2C 		ldrb	r2, [r2, #-12]	@ zero_extendqisi2
 250 0052 8242     		cmp	r2, r0
 251 0054 F5D1     		bne	.L14
  71:Src/driver/keyboard_matrix.c ****             key = i;
 252              		.loc 1 71 0
 253 0056 1C46     		mov	r4, r3
 254              	.LVL14:
  72:Src/driver/keyboard_matrix.c ****             i = 12;                          //stop looping
 255              		.loc 1 72 0
 256 0058 0C23     		movs	r3, #12
 257              	.LVL15:
 258 005a F2E7     		b	.L14
 259              	.LVL16:
 260              	.L17:
 261              	.LBE5:
  65:Src/driver/keyboard_matrix.c ****     }
 262              		.loc 1 65 0
 263 005c 0446     		mov	r4, r0
 264              	.LVL17:
 265              	.L12:
  73:Src/driver/keyboard_matrix.c ****         }
  74:Src/driver/keyboard_matrix.c ****     }
  75:Src/driver/keyboard_matrix.c ****     return key;
  76:Src/driver/keyboard_matrix.c **** }
 266              		.loc 1 76 0
 267 005e 2046     		mov	r0, r4
 268              	.LVL18:
 269 0060 04B0     		add	sp, sp, #16
ARM GAS  /var/folders/xw/ncjdtmf133b976k652zsj0500000gn/T//ccftb7wq.s 			page 7


 270              	.LCFI5:
 271              		.cfi_def_cfa_offset 8
 272              		@ sp needed
 273 0062 10BD     		pop	{r4, pc}
 274              	.L22:
 275              		.align	2
 276              	.L21:
 277 0064 00000000 		.word	.LANCHOR0
 278              		.cfi_endproc
 279              	.LFE68:
 281              		.section	.text.kbm_getAsciiValue,"ax",%progbits
 282              		.align	1
 283              		.global	kbm_getAsciiValue
 284              		.syntax unified
 285              		.thumb
 286              		.thumb_func
 287              		.fpu softvfp
 289              	kbm_getAsciiValue:
 290              	.LFB69:
  77:Src/driver/keyboard_matrix.c **** 
  78:Src/driver/keyboard_matrix.c **** // Return the pressed key in ASCII code
  79:Src/driver/keyboard_matrix.c **** char kbm_getAsciiValue(){
 291              		.loc 1 79 0
 292              		.cfi_startproc
 293              		@ args = 0, pretend = 0, frame = 0
 294              		@ frame_needed = 0, uses_anonymous_args = 0
 295 0000 08B5     		push	{r3, lr}
 296              	.LCFI6:
 297              		.cfi_def_cfa_offset 8
 298              		.cfi_offset 3, -8
 299              		.cfi_offset 14, -4
  80:Src/driver/keyboard_matrix.c ****     uint8_t key = kbm_getValue();
 300              		.loc 1 80 0
 301 0002 FFF7FEFF 		bl	kbm_getValue
 302              	.LVL19:
  81:Src/driver/keyboard_matrix.c ****     switch (key){
 303              		.loc 1 81 0
 304 0006 0B28     		cmp	r0, #11
 305 0008 0AD0     		beq	.L28
 306 000a FF28     		cmp	r0, #255
 307 000c 06D0     		beq	.L26
 308 000e 0A28     		cmp	r0, #10
 309 0010 02D0     		beq	.L31
  82:Src/driver/keyboard_matrix.c ****         case 10:    return KBM_KEY_ASCII_ASTERISK;
  83:Src/driver/keyboard_matrix.c ****         case 11:    return KBM_KEY_ASCII_HASHMARK;
  84:Src/driver/keyboard_matrix.c ****         case 0xFF:  return 0;
  85:Src/driver/keyboard_matrix.c ****         default:    return key + 48;
 310              		.loc 1 85 0
 311 0012 3030     		adds	r0, r0, #48
 312              	.LVL20:
 313 0014 C0B2     		uxtb	r0, r0
 314 0016 00E0     		b	.L25
 315              	.LVL21:
 316              	.L31:
  82:Src/driver/keyboard_matrix.c ****         case 10:    return KBM_KEY_ASCII_ASTERISK;
 317              		.loc 1 82 0
 318 0018 2A20     		movs	r0, #42
ARM GAS  /var/folders/xw/ncjdtmf133b976k652zsj0500000gn/T//ccftb7wq.s 			page 8


 319              	.LVL22:
 320              	.L25:
  86:Src/driver/keyboard_matrix.c ****     }
  87:Src/driver/keyboard_matrix.c **** }...
 321              		.loc 1 87 0
 322 001a 08BD     		pop	{r3, pc}
 323              	.LVL23:
 324              	.L26:
  84:Src/driver/keyboard_matrix.c ****         case 0xFF:  return 0;
 325              		.loc 1 84 0
 326 001c 0020     		movs	r0, #0
 327              	.LVL24:
 328 001e FCE7     		b	.L25
 329              	.LVL25:
 330              	.L28:
  83:Src/driver/keyboard_matrix.c ****         case 11:    return KBM_KEY_ASCII_HASHMARK;
 331              		.loc 1 83 0
 332 0020 2320     		movs	r0, #35
 333              	.LVL26:
 334 0022 FAE7     		b	.L25
 335              		.cfi_endproc
 336              	.LFE69:
 338              		.section	.rodata
 339              		.align	2
 340              		.set	.LANCHOR0,. + 0
 341              	.LC0:
 342 0000 45       		.byte	69
 343 0001 0E       		.byte	14
 344 0002 0D       		.byte	13
 345 0003 0B       		.byte	11
 346 0004 16       		.byte	22
 347 0005 15       		.byte	21
 348 0006 13       		.byte	19
 349 0007 26       		.byte	38
 350 0008 25       		.byte	37
 351 0009 23       		.byte	35
 352 000a 46       		.byte	70
 353 000b 43       		.byte	67
 354              		.text
 355              	.Letext0:
 356              		.file 2 "/usr/local/Cellar/gcc-arm-none-eabi/20171218/arm-none-eabi/include/machine/_default_types
 357              		.file 3 "/usr/local/Cellar/gcc-arm-none-eabi/20171218/arm-none-eabi/include/sys/_stdint.h"
 358              		.file 4 "Drivers/CMSIS/Include/core_cm3.h"
 359              		.file 5 "Drivers/CMSIS/Device/ST/STM32F1xx/Include/system_stm32f1xx.h"
 360              		.file 6 "Drivers/CMSIS/Device/ST/STM32F1xx/Include/stm32f103xb.h"
 361              		.file 7 "/usr/local/Cellar/gcc-arm-none-eabi/20171218/arm-none-eabi/include/sys/lock.h"
 362              		.file 8 "/usr/local/Cellar/gcc-arm-none-eabi/20171218/arm-none-eabi/include/sys/_types.h"
 363              		.file 9 "/usr/local/Cellar/gcc-arm-none-eabi/20171218/lib/gcc/arm-none-eabi/7.2.1/include/stddef.h
 364              		.file 10 "/usr/local/Cellar/gcc-arm-none-eabi/20171218/arm-none-eabi/include/sys/reent.h"
 365              		.file 11 "Drivers/STM32F1xx_HAL_Driver/Inc/stm32f1xx_hal_gpio.h"
ARM GAS  /var/folders/xw/ncjdtmf133b976k652zsj0500000gn/T//ccftb7wq.s 			page 9

