ARM GAS  /var/folders/xw/ncjdtmf133b976k652zsj0500000gn/T//ccNzLPoU.s 			page 1


   1              		.cpu cortex-m3
   2              		.eabi_attribute 20, 1
   3              		.eabi_attribute 21, 1
   4              		.eabi_attribute 23, 3
   5              		.eabi_attribute 24, 1
   6              		.eabi_attribute 25, 1
   7              		.eabi_attribute 26, 1
   8              		.eabi_attribute 30, 1
   9              		.eabi_attribute 34, 1
  10              		.eabi_attribute 18, 4
  11              		.file	"main.c"
  12              		.text
  13              	.Ltext0:
  14              		.cfi_sections	.debug_frame
  15              		.section	.text._Error_Handler,"ax",%progbits
  16              		.align	1
  17              		.global	_Error_Handler
  18              		.syntax unified
  19              		.thumb
  20              		.thumb_func
  21              		.fpu softvfp
  23              	_Error_Handler:
  24              	.LFB68:
  25              		.file 1 "Src/main.c"
   1:Src/main.c    **** 
   2:Src/main.c    **** /**
   3:Src/main.c    ****   ******************************************************************************
   4:Src/main.c    ****   * @file           : main.c
   5:Src/main.c    ****   * @brief          : Main program body
   6:Src/main.c    ****   ******************************************************************************
   7:Src/main.c    ****   ** This notice applies to any and all portions of this file
   8:Src/main.c    ****   * that are not between comment pairs USER CODE BEGIN and
   9:Src/main.c    ****   * USER CODE END. Other portions of this file, whether 
  10:Src/main.c    ****   * inserted by the user or by software development tools
  11:Src/main.c    ****   * are owned by their respective copyright owners.
  12:Src/main.c    ****   *
  13:Src/main.c    ****   * COPYRIGHT(c) 2018 STMicroelectronics
  14:Src/main.c    ****   *
  15:Src/main.c    ****   * Redistribution and use in source and binary forms, with or without modification,
  16:Src/main.c    ****   * are permitted provided that the following conditions are met:
  17:Src/main.c    ****   *   1. Redistributions of source code must retain the above copyright notice,
  18:Src/main.c    ****   *      this list of conditions and the following disclaimer.
  19:Src/main.c    ****   *   2. Redistributions in binary form must reproduce the above copyright notice,
  20:Src/main.c    ****   *      this list of conditions and the following disclaimer in the documentation
  21:Src/main.c    ****   *      and/or other materials provided with the distribution.
  22:Src/main.c    ****   *   3. Neither the name of STMicroelectronics nor the names of its contributors
  23:Src/main.c    ****   *      may be used to endorse or promote products derived from this software
  24:Src/main.c    ****   *      without specific prior written permission.
  25:Src/main.c    ****   *
  26:Src/main.c    ****   * THIS SOFTWARE IS PROVIDED BY THE COPYRIGHT HOLDERS AND CONTRIBUTORS "AS IS"
  27:Src/main.c    ****   * AND ANY EXPRESS OR IMPLIED WARRANTIES, INCLUDING, BUT NOT LIMITED TO, THE
  28:Src/main.c    ****   * IMPLIED WARRANTIES OF MERCHANTABILITY AND FITNESS FOR A PARTICULAR PURPOSE ARE
  29:Src/main.c    ****   * DISCLAIMED. IN NO EVENT SHALL THE COPYRIGHT HOLDER OR CONTRIBUTORS BE LIABLE
  30:Src/main.c    ****   * FOR ANY DIRECT, INDIRECT, INCIDENTAL, SPECIAL, EXEMPLARY, OR CONSEQUENTIAL
  31:Src/main.c    ****   * DAMAGES (INCLUDING, BUT NOT LIMITED TO, PROCUREMENT OF SUBSTITUTE GOODS OR
  32:Src/main.c    ****   * SERVICES; LOSS OF USE, DATA, OR PROFITS; OR BUSINESS INTERRUPTION) HOWEVER
  33:Src/main.c    ****   * CAUSED AND ON ANY THEORY OF LIABILITY, WHETHER IN CONTRACT, STRICT LIABILITY,
ARM GAS  /var/folders/xw/ncjdtmf133b976k652zsj0500000gn/T//ccNzLPoU.s 			page 2


  34:Src/main.c    ****   * OR TORT (INCLUDING NEGLIGENCE OR OTHERWISE) ARISING IN ANY WAY OUT OF THE USE
  35:Src/main.c    ****   * OF THIS SOFTWARE, EVEN IF ADVISED OF THE POSSIBILITY OF SUCH DAMAGE.
  36:Src/main.c    ****   *
  37:Src/main.c    ****   ******************************************************************************
  38:Src/main.c    ****   */
  39:Src/main.c    **** /* Includes ------------------------------------------------------------------*/
  40:Src/main.c    **** #include "main.h"
  41:Src/main.c    **** #include "stm32f1xx_hal.h"
  42:Src/main.c    **** #include "gpio.h"
  43:Src/main.c    **** 
  44:Src/main.c    **** /* USER CODE BEGIN Includes */
  45:Src/main.c    **** 
  46:Src/main.c    **** /* USER CODE END Includes */
  47:Src/main.c    **** 
  48:Src/main.c    **** /* Private variables ---------------------------------------------------------*/
  49:Src/main.c    **** 
  50:Src/main.c    **** /* USER CODE BEGIN PV */
  51:Src/main.c    **** /* Private variables ---------------------------------------------------------*/
  52:Src/main.c    **** 
  53:Src/main.c    **** /* USER CODE END PV */
  54:Src/main.c    **** 
  55:Src/main.c    **** /* Private function prototypes -----------------------------------------------*/
  56:Src/main.c    **** void SystemClock_Config(void);
  57:Src/main.c    **** 
  58:Src/main.c    **** /* USER CODE BEGIN PFP */
  59:Src/main.c    **** /* Private function prototypes -----------------------------------------------*/
  60:Src/main.c    **** 
  61:Src/main.c    **** /* USER CODE END PFP */
  62:Src/main.c    **** 
  63:Src/main.c    **** /* USER CODE BEGIN 0 */
  64:Src/main.c    **** 
  65:Src/main.c    **** /* USER CODE END 0 */
  66:Src/main.c    **** 
  67:Src/main.c    **** /**
  68:Src/main.c    ****   * @brief  The application entry point.
  69:Src/main.c    ****   *
  70:Src/main.c    ****   * @retval None
  71:Src/main.c    ****   */
  72:Src/main.c    **** int main(void)
  73:Src/main.c    **** {
  74:Src/main.c    ****   /* USER CODE BEGIN 1 */
  75:Src/main.c    **** 
  76:Src/main.c    ****   /* USER CODE END 1 */
  77:Src/main.c    **** 
  78:Src/main.c    ****   /* MCU Configuration----------------------------------------------------------*/
  79:Src/main.c    **** 
  80:Src/main.c    ****   /* Reset of all peripherals, Initializes the Flash interface and the Systick. */
  81:Src/main.c    ****   HAL_Init();
  82:Src/main.c    **** 
  83:Src/main.c    ****   /* USER CODE BEGIN Init */
  84:Src/main.c    **** 
  85:Src/main.c    ****   /* USER CODE END Init */
  86:Src/main.c    **** 
  87:Src/main.c    ****   /* Configure the system clock */
  88:Src/main.c    ****   SystemClock_Config();
  89:Src/main.c    **** 
  90:Src/main.c    ****   /* USER CODE BEGIN SysInit */
ARM GAS  /var/folders/xw/ncjdtmf133b976k652zsj0500000gn/T//ccNzLPoU.s 			page 3


  91:Src/main.c    ****   kbm_init();
  92:Src/main.c    ****   /* USER CODE END SysInit */
  93:Src/main.c    **** 
  94:Src/main.c    ****   /* Initialize all configured peripherals */
  95:Src/main.c    ****   MX_GPIO_Init();
  96:Src/main.c    ****   /* USER CODE BEGIN 2 */
  97:Src/main.c    ****   kbm_getAsciiValue();
  98:Src/main.c    ****   /* USER CODE END 2 */
  99:Src/main.c    **** 
 100:Src/main.c    ****   /* Infinite loop */
 101:Src/main.c    ****   /* USER CODE BEGIN WHILE */
 102:Src/main.c    ****   while (1)
 103:Src/main.c    ****   {
 104:Src/main.c    **** 
 105:Src/main.c    ****   /* USER CODE END WHILE */
 106:Src/main.c    **** 
 107:Src/main.c    ****   /* USER CODE BEGIN 3 */
 108:Src/main.c    **** 
 109:Src/main.c    ****   }
 110:Src/main.c    ****   /* USER CODE END 3 */
 111:Src/main.c    **** 
 112:Src/main.c    **** }
 113:Src/main.c    **** 
 114:Src/main.c    **** /**
 115:Src/main.c    ****   * @brief System Clock Configuration
 116:Src/main.c    ****   * @retval None
 117:Src/main.c    ****   */
 118:Src/main.c    **** void SystemClock_Config(void)
 119:Src/main.c    **** {
 120:Src/main.c    **** 
 121:Src/main.c    ****   RCC_OscInitTypeDef RCC_OscInitStruct;
 122:Src/main.c    ****   RCC_ClkInitTypeDef RCC_ClkInitStruct;
 123:Src/main.c    **** 
 124:Src/main.c    ****     /**Initializes the CPU, AHB and APB busses clocks 
 125:Src/main.c    ****     */
 126:Src/main.c    ****   RCC_OscInitStruct.OscillatorType = RCC_OSCILLATORTYPE_HSI;
 127:Src/main.c    ****   RCC_OscInitStruct.HSIState = RCC_HSI_ON;
 128:Src/main.c    ****   RCC_OscInitStruct.HSICalibrationValue = 16;
 129:Src/main.c    ****   RCC_OscInitStruct.PLL.PLLState = RCC_PLL_ON;
 130:Src/main.c    ****   RCC_OscInitStruct.PLL.PLLSource = RCC_PLLSOURCE_HSI_DIV2;
 131:Src/main.c    ****   RCC_OscInitStruct.PLL.PLLMUL = RCC_PLL_MUL16;
 132:Src/main.c    ****   if (HAL_RCC_OscConfig(&RCC_OscInitStruct) != HAL_OK)
 133:Src/main.c    ****   {
 134:Src/main.c    ****     _Error_Handler(__FILE__, __LINE__);
 135:Src/main.c    ****   }
 136:Src/main.c    **** 
 137:Src/main.c    ****     /**Initializes the CPU, AHB and APB busses clocks 
 138:Src/main.c    ****     */
 139:Src/main.c    ****   RCC_ClkInitStruct.ClockType = RCC_CLOCKTYPE_HCLK|RCC_CLOCKTYPE_SYSCLK
 140:Src/main.c    ****                               |RCC_CLOCKTYPE_PCLK1|RCC_CLOCKTYPE_PCLK2;
 141:Src/main.c    ****   RCC_ClkInitStruct.SYSCLKSource = RCC_SYSCLKSOURCE_PLLCLK;
 142:Src/main.c    ****   RCC_ClkInitStruct.AHBCLKDivider = RCC_SYSCLK_DIV1;
 143:Src/main.c    ****   RCC_ClkInitStruct.APB1CLKDivider = RCC_HCLK_DIV2;
 144:Src/main.c    ****   RCC_ClkInitStruct.APB2CLKDivider = RCC_HCLK_DIV1;
 145:Src/main.c    **** 
 146:Src/main.c    ****   if (HAL_RCC_ClockConfig(&RCC_ClkInitStruct, FLASH_LATENCY_2) != HAL_OK)
 147:Src/main.c    ****   {
ARM GAS  /var/folders/xw/ncjdtmf133b976k652zsj0500000gn/T//ccNzLPoU.s 			page 4


 148:Src/main.c    ****     _Error_Handler(__FILE__, __LINE__);
 149:Src/main.c    ****   }
 150:Src/main.c    **** 
 151:Src/main.c    ****     /**Configure the Systick interrupt time 
 152:Src/main.c    ****     */
 153:Src/main.c    ****   HAL_SYSTICK_Config(HAL_RCC_GetHCLKFreq()/1000);
 154:Src/main.c    **** 
 155:Src/main.c    ****     /**Configure the Systick 
 156:Src/main.c    ****     */
 157:Src/main.c    ****   HAL_SYSTICK_CLKSourceConfig(SYSTICK_CLKSOURCE_HCLK);
 158:Src/main.c    **** 
 159:Src/main.c    ****   /* SysTick_IRQn interrupt configuration */
 160:Src/main.c    ****   HAL_NVIC_SetPriority(SysTick_IRQn, 0, 0);
 161:Src/main.c    **** }
 162:Src/main.c    **** 
 163:Src/main.c    **** /* USER CODE BEGIN 4 */
 164:Src/main.c    **** 
 165:Src/main.c    **** /* USER CODE END 4 */
 166:Src/main.c    **** 
 167:Src/main.c    **** /**
 168:Src/main.c    ****   * @brief  This function is executed in case of error occurrence.
 169:Src/main.c    ****   * @param  file: The file name as string.
 170:Src/main.c    ****   * @param  line: The line in file as a number.
 171:Src/main.c    ****   * @retval None
 172:Src/main.c    ****   */
 173:Src/main.c    **** void _Error_Handler(char *file, int line)
 174:Src/main.c    **** {
  26              		.loc 1 174 0
  27              		.cfi_startproc
  28              		@ Volatile: function does not return.
  29              		@ args = 0, pretend = 0, frame = 0
  30              		@ frame_needed = 0, uses_anonymous_args = 0
  31              		@ link register save eliminated.
  32              	.LVL0:
  33              	.L2:
  34 0000 FEE7     		b	.L2
  35              		.cfi_endproc
  36              	.LFE68:
  38              		.section	.text.SystemClock_Config,"ax",%progbits
  39              		.align	1
  40              		.global	SystemClock_Config
  41              		.syntax unified
  42              		.thumb
  43              		.thumb_func
  44              		.fpu softvfp
  46              	SystemClock_Config:
  47              	.LFB67:
 119:Src/main.c    **** 
  48              		.loc 1 119 0
  49              		.cfi_startproc
  50              		@ args = 0, pretend = 0, frame = 64
  51              		@ frame_needed = 0, uses_anonymous_args = 0
 119:Src/main.c    **** 
  52              		.loc 1 119 0
  53 0000 00B5     		push	{lr}
  54              	.LCFI0:
  55              		.cfi_def_cfa_offset 4
ARM GAS  /var/folders/xw/ncjdtmf133b976k652zsj0500000gn/T//ccNzLPoU.s 			page 5


  56              		.cfi_offset 14, -4
  57 0002 91B0     		sub	sp, sp, #68
  58              	.LCFI1:
  59              		.cfi_def_cfa_offset 72
 126:Src/main.c    ****   RCC_OscInitStruct.HSIState = RCC_HSI_ON;
  60              		.loc 1 126 0
  61 0004 0223     		movs	r3, #2
  62 0006 0693     		str	r3, [sp, #24]
 127:Src/main.c    ****   RCC_OscInitStruct.HSICalibrationValue = 16;
  63              		.loc 1 127 0
  64 0008 0122     		movs	r2, #1
  65 000a 0A92     		str	r2, [sp, #40]
 128:Src/main.c    ****   RCC_OscInitStruct.PLL.PLLState = RCC_PLL_ON;
  66              		.loc 1 128 0
  67 000c 1022     		movs	r2, #16
  68 000e 0B92     		str	r2, [sp, #44]
 129:Src/main.c    ****   RCC_OscInitStruct.PLL.PLLSource = RCC_PLLSOURCE_HSI_DIV2;
  69              		.loc 1 129 0
  70 0010 0D93     		str	r3, [sp, #52]
 130:Src/main.c    ****   RCC_OscInitStruct.PLL.PLLMUL = RCC_PLL_MUL16;
  71              		.loc 1 130 0
  72 0012 0023     		movs	r3, #0
  73 0014 0E93     		str	r3, [sp, #56]
 131:Src/main.c    ****   if (HAL_RCC_OscConfig(&RCC_OscInitStruct) != HAL_OK)
  74              		.loc 1 131 0
  75 0016 4FF46013 		mov	r3, #3670016
  76 001a 0F93     		str	r3, [sp, #60]
 132:Src/main.c    ****   {
  77              		.loc 1 132 0
  78 001c 06A8     		add	r0, sp, #24
  79 001e FFF7FEFF 		bl	HAL_RCC_OscConfig
  80              	.LVL1:
  81 0022 08BB     		cbnz	r0, .L7
 139:Src/main.c    ****                               |RCC_CLOCKTYPE_PCLK1|RCC_CLOCKTYPE_PCLK2;
  82              		.loc 1 139 0
  83 0024 0F23     		movs	r3, #15
  84 0026 0193     		str	r3, [sp, #4]
 141:Src/main.c    ****   RCC_ClkInitStruct.AHBCLKDivider = RCC_SYSCLK_DIV1;
  85              		.loc 1 141 0
  86 0028 0221     		movs	r1, #2
  87 002a 0291     		str	r1, [sp, #8]
 142:Src/main.c    ****   RCC_ClkInitStruct.APB1CLKDivider = RCC_HCLK_DIV2;
  88              		.loc 1 142 0
  89 002c 0023     		movs	r3, #0
  90 002e 0393     		str	r3, [sp, #12]
 143:Src/main.c    ****   RCC_ClkInitStruct.APB2CLKDivider = RCC_HCLK_DIV1;
  91              		.loc 1 143 0
  92 0030 4FF48062 		mov	r2, #1024
  93 0034 0492     		str	r2, [sp, #16]
 144:Src/main.c    **** 
  94              		.loc 1 144 0
  95 0036 0593     		str	r3, [sp, #20]
 146:Src/main.c    ****   {
  96              		.loc 1 146 0
  97 0038 01A8     		add	r0, sp, #4
  98 003a FFF7FEFF 		bl	HAL_RCC_ClockConfig
  99              	.LVL2:
ARM GAS  /var/folders/xw/ncjdtmf133b976k652zsj0500000gn/T//ccNzLPoU.s 			page 6


 100 003e B8B9     		cbnz	r0, .L8
 153:Src/main.c    **** 
 101              		.loc 1 153 0
 102 0040 FFF7FEFF 		bl	HAL_RCC_GetHCLKFreq
 103              	.LVL3:
 104 0044 0C4B     		ldr	r3, .L9
 105 0046 A3FB0030 		umull	r3, r0, r3, r0
 106 004a 8009     		lsrs	r0, r0, #6
 107 004c FFF7FEFF 		bl	HAL_SYSTICK_Config
 108              	.LVL4:
 157:Src/main.c    **** 
 109              		.loc 1 157 0
 110 0050 0420     		movs	r0, #4
 111 0052 FFF7FEFF 		bl	HAL_SYSTICK_CLKSourceConfig
 112              	.LVL5:
 160:Src/main.c    **** }
 113              		.loc 1 160 0
 114 0056 0022     		movs	r2, #0
 115 0058 1146     		mov	r1, r2
 116 005a 4FF0FF30 		mov	r0, #-1
 117 005e FFF7FEFF 		bl	HAL_NVIC_SetPriority
 118              	.LVL6:
 161:Src/main.c    **** 
 119              		.loc 1 161 0
 120 0062 11B0     		add	sp, sp, #68
 121              	.LCFI2:
 122              		.cfi_remember_state
 123              		.cfi_def_cfa_offset 4
 124              		@ sp needed
 125 0064 5DF804FB 		ldr	pc, [sp], #4
 126              	.L7:
 127              	.LCFI3:
 128              		.cfi_restore_state
 134:Src/main.c    ****   }
 129              		.loc 1 134 0
 130 0068 8621     		movs	r1, #134
 131 006a 0448     		ldr	r0, .L9+4
 132 006c FFF7FEFF 		bl	_Error_Handler
 133              	.LVL7:
 134              	.L8:
 148:Src/main.c    ****   }
 135              		.loc 1 148 0
 136 0070 9421     		movs	r1, #148
 137 0072 0248     		ldr	r0, .L9+4
 138 0074 FFF7FEFF 		bl	_Error_Handler
 139              	.LVL8:
 140              	.L10:
 141              		.align	2
 142              	.L9:
 143 0078 D34D6210 		.word	274877907
 144 007c 00000000 		.word	.LC0
 145              		.cfi_endproc
 146              	.LFE67:
 148              		.section	.text.main,"ax",%progbits
 149              		.align	1
 150              		.global	main
 151              		.syntax unified
ARM GAS  /var/folders/xw/ncjdtmf133b976k652zsj0500000gn/T//ccNzLPoU.s 			page 7


 152              		.thumb
 153              		.thumb_func
 154              		.fpu softvfp
 156              	main:
 157              	.LFB66:
  73:Src/main.c    ****   /* USER CODE BEGIN 1 */
 158              		.loc 1 73 0
 159              		.cfi_startproc
 160              		@ Volatile: function does not return.
 161              		@ args = 0, pretend = 0, frame = 0
 162              		@ frame_needed = 0, uses_anonymous_args = 0
 163 0000 08B5     		push	{r3, lr}
 164              	.LCFI4:
 165              		.cfi_def_cfa_offset 8
 166              		.cfi_offset 3, -8
 167              		.cfi_offset 14, -4
  81:Src/main.c    **** 
 168              		.loc 1 81 0
 169 0002 FFF7FEFF 		bl	HAL_Init
 170              	.LVL9:
  88:Src/main.c    **** 
 171              		.loc 1 88 0
 172 0006 FFF7FEFF 		bl	SystemClock_Config
 173              	.LVL10:
  91:Src/main.c    ****   /* USER CODE END SysInit */
 174              		.loc 1 91 0
 175 000a FFF7FEFF 		bl	kbm_init
 176              	.LVL11:
  95:Src/main.c    ****   /* USER CODE BEGIN 2 */
 177              		.loc 1 95 0
 178 000e FFF7FEFF 		bl	MX_GPIO_Init
 179              	.LVL12:
  97:Src/main.c    ****   /* USER CODE END 2 */
 180              		.loc 1 97 0
 181 0012 FFF7FEFF 		bl	kbm_getAsciiValue
 182              	.LVL13:
 183              	.L12:
 184 0016 FEE7     		b	.L12
 185              		.cfi_endproc
 186              	.LFE66:
 188              		.section	.text.assert_failed,"ax",%progbits
 189              		.align	1
 190              		.global	assert_failed
 191              		.syntax unified
 192              		.thumb
 193              		.thumb_func
 194              		.fpu softvfp
 196              	assert_failed:
 197              	.LFB69:
 175:Src/main.c    ****   /* USER CODE BEGIN Error_Handler_Debug */
 176:Src/main.c    ****   /* User can add his own implementation to report the HAL error return state */
 177:Src/main.c    ****   while(1)
 178:Src/main.c    ****   {
 179:Src/main.c    ****   }
 180:Src/main.c    ****   /* USER CODE END Error_Handler_Debug */
 181:Src/main.c    **** }
 182:Src/main.c    **** 
ARM GAS  /var/folders/xw/ncjdtmf133b976k652zsj0500000gn/T//ccNzLPoU.s 			page 8


 183:Src/main.c    **** #ifdef  USE_FULL_ASSERT
 184:Src/main.c    **** /**
 185:Src/main.c    ****   * @brief  Reports the name of the source file and the source line number
 186:Src/main.c    ****   *         where the assert_param error has occurred.
 187:Src/main.c    ****   * @param  file: pointer to the source file name
 188:Src/main.c    ****   * @param  line: assert_param error line source number
 189:Src/main.c    ****   * @retval None
 190:Src/main.c    ****   */
 191:Src/main.c    **** void assert_failed(uint8_t* file, uint32_t line)
 192:Src/main.c    **** { 
 198              		.loc 1 192 0
 199              		.cfi_startproc
 200              		@ args = 0, pretend = 0, frame = 0
 201              		@ frame_needed = 0, uses_anonymous_args = 0
 202              		@ link register save eliminated.
 203              	.LVL14:
 193:Src/main.c    ****   /* USER CODE BEGIN 6 */
 194:Src/main.c    ****   /* User can add his own implementation to report the file name and line number,
 195:Src/main.c    ****      tex: printf("Wrong parameters value: file %s on line %d\r\n", file, line) */
 196:Src/main.c    ****   /* USER CODE END 6 */
 197:Src/main.c    **** }
 204              		.loc 1 197 0
 205 0000 7047     		bx	lr
 206              		.cfi_endproc
 207              	.LFE69:
 209              		.section	.rodata.SystemClock_Config.str1.4,"aMS",%progbits,1
 210              		.align	2
 211              	.LC0:
 212 0000 5372632F 		.ascii	"Src/main.c\000"
 212      6D61696E 
 212      2E6300
 213              		.text
 214              	.Letext0:
 215              		.file 2 "/usr/local/Cellar/gcc-arm-none-eabi/20171218/arm-none-eabi/include/machine/_default_types
 216              		.file 3 "/usr/local/Cellar/gcc-arm-none-eabi/20171218/arm-none-eabi/include/sys/_stdint.h"
 217              		.file 4 "Drivers/CMSIS/Include/core_cm3.h"
 218              		.file 5 "Drivers/CMSIS/Device/ST/STM32F1xx/Include/system_stm32f1xx.h"
 219              		.file 6 "/usr/local/Cellar/gcc-arm-none-eabi/20171218/arm-none-eabi/include/sys/lock.h"
 220              		.file 7 "/usr/local/Cellar/gcc-arm-none-eabi/20171218/arm-none-eabi/include/sys/_types.h"
 221              		.file 8 "/usr/local/Cellar/gcc-arm-none-eabi/20171218/lib/gcc/arm-none-eabi/7.2.1/include/stddef.h
 222              		.file 9 "/usr/local/Cellar/gcc-arm-none-eabi/20171218/arm-none-eabi/include/sys/reent.h"
 223              		.file 10 "Drivers/CMSIS/Device/ST/STM32F1xx/Include/stm32f103xb.h"
 224              		.file 11 "Drivers/STM32F1xx_HAL_Driver/Inc/stm32f1xx_hal_def.h"
 225              		.file 12 "Drivers/STM32F1xx_HAL_Driver/Inc/stm32f1xx_hal_rcc.h"
 226              		.file 13 "Drivers/STM32F1xx_HAL_Driver/Inc/stm32f1xx_hal_rcc_ex.h"
 227              		.file 14 "Drivers/STM32F1xx_HAL_Driver/Inc/stm32f1xx_hal_cortex.h"
 228              		.file 15 "Drivers/STM32F1xx_HAL_Driver/Inc/stm32f1xx_hal.h"
 229              		.file 16 "Inc/gpio.h"
ARM GAS  /var/folders/xw/ncjdtmf133b976k652zsj0500000gn/T//ccNzLPoU.s 			page 9

