ARM GAS  /var/folders/xw/ncjdtmf133b976k652zsj0500000gn/T//cc8MC9bm.s 			page 1


   1              		.cpu cortex-m3
   2              		.eabi_attribute 20, 1
   3              		.eabi_attribute 21, 1
   4              		.eabi_attribute 23, 3
   5              		.eabi_attribute 24, 1
   6              		.eabi_attribute 25, 1
   7              		.eabi_attribute 26, 1
   8              		.eabi_attribute 30, 1
   9              		.eabi_attribute 34, 1
  10              		.eabi_attribute 18, 4
  11              		.file	"stm32f1xx_hal_gpio.c"
  12              		.text
  13              	.Ltext0:
  14              		.cfi_sections	.debug_frame
  15              		.section	.text.HAL_GPIO_Init,"ax",%progbits
  16              		.align	1
  17              		.global	HAL_GPIO_Init
  18              		.syntax unified
  19              		.thumb
  20              		.thumb_func
  21              		.fpu softvfp
  23              	HAL_GPIO_Init:
  24              	.LFB66:
  25              		.file 1 "Drivers/STM32F1xx_HAL_Driver/Src/stm32f1xx_hal_gpio.c"
   1:Drivers/STM32F1xx_HAL_Driver/Src/stm32f1xx_hal_gpio.c **** /**
   2:Drivers/STM32F1xx_HAL_Driver/Src/stm32f1xx_hal_gpio.c ****   ******************************************************************************
   3:Drivers/STM32F1xx_HAL_Driver/Src/stm32f1xx_hal_gpio.c ****   * @file    stm32f1xx_hal_gpio.c
   4:Drivers/STM32F1xx_HAL_Driver/Src/stm32f1xx_hal_gpio.c ****   * @author  MCD Application Team
   5:Drivers/STM32F1xx_HAL_Driver/Src/stm32f1xx_hal_gpio.c ****   * @brief   GPIO HAL module driver.
   6:Drivers/STM32F1xx_HAL_Driver/Src/stm32f1xx_hal_gpio.c ****   *          This file provides firmware functions to manage the following
   7:Drivers/STM32F1xx_HAL_Driver/Src/stm32f1xx_hal_gpio.c ****   *          functionalities of the General Purpose Input/Output (GPIO) peripheral:
   8:Drivers/STM32F1xx_HAL_Driver/Src/stm32f1xx_hal_gpio.c ****   *           + Initialization and de-initialization functions
   9:Drivers/STM32F1xx_HAL_Driver/Src/stm32f1xx_hal_gpio.c ****   *           + IO operation functions
  10:Drivers/STM32F1xx_HAL_Driver/Src/stm32f1xx_hal_gpio.c ****   *
  11:Drivers/STM32F1xx_HAL_Driver/Src/stm32f1xx_hal_gpio.c ****   @verbatim
  12:Drivers/STM32F1xx_HAL_Driver/Src/stm32f1xx_hal_gpio.c ****   ==============================================================================
  13:Drivers/STM32F1xx_HAL_Driver/Src/stm32f1xx_hal_gpio.c ****                     ##### GPIO Peripheral features #####
  14:Drivers/STM32F1xx_HAL_Driver/Src/stm32f1xx_hal_gpio.c ****   ==============================================================================
  15:Drivers/STM32F1xx_HAL_Driver/Src/stm32f1xx_hal_gpio.c ****   [..]
  16:Drivers/STM32F1xx_HAL_Driver/Src/stm32f1xx_hal_gpio.c ****   Subject to the specific hardware characteristics of each I/O port listed in the datasheet, each
  17:Drivers/STM32F1xx_HAL_Driver/Src/stm32f1xx_hal_gpio.c ****   port bit of the General Purpose IO (GPIO) Ports, can be individually configured by software
  18:Drivers/STM32F1xx_HAL_Driver/Src/stm32f1xx_hal_gpio.c ****   in several modes:
  19:Drivers/STM32F1xx_HAL_Driver/Src/stm32f1xx_hal_gpio.c ****   (+) Input mode
  20:Drivers/STM32F1xx_HAL_Driver/Src/stm32f1xx_hal_gpio.c ****   (+) Analog mode
  21:Drivers/STM32F1xx_HAL_Driver/Src/stm32f1xx_hal_gpio.c ****   (+) Output mode
  22:Drivers/STM32F1xx_HAL_Driver/Src/stm32f1xx_hal_gpio.c ****   (+) Alternate function mode
  23:Drivers/STM32F1xx_HAL_Driver/Src/stm32f1xx_hal_gpio.c ****   (+) External interrupt/event lines
  24:Drivers/STM32F1xx_HAL_Driver/Src/stm32f1xx_hal_gpio.c **** 
  25:Drivers/STM32F1xx_HAL_Driver/Src/stm32f1xx_hal_gpio.c ****   [..]
  26:Drivers/STM32F1xx_HAL_Driver/Src/stm32f1xx_hal_gpio.c ****   During and just after reset, the alternate functions and external interrupt
  27:Drivers/STM32F1xx_HAL_Driver/Src/stm32f1xx_hal_gpio.c ****   lines are not active and the I/O ports are configured in input floating mode.
  28:Drivers/STM32F1xx_HAL_Driver/Src/stm32f1xx_hal_gpio.c **** 
  29:Drivers/STM32F1xx_HAL_Driver/Src/stm32f1xx_hal_gpio.c ****   [..]
  30:Drivers/STM32F1xx_HAL_Driver/Src/stm32f1xx_hal_gpio.c ****   All GPIO pins have weak internal pull-up and pull-down resistors, which can be
  31:Drivers/STM32F1xx_HAL_Driver/Src/stm32f1xx_hal_gpio.c ****   activated or not.
  32:Drivers/STM32F1xx_HAL_Driver/Src/stm32f1xx_hal_gpio.c **** 
  33:Drivers/STM32F1xx_HAL_Driver/Src/stm32f1xx_hal_gpio.c ****   [..]
ARM GAS  /var/folders/xw/ncjdtmf133b976k652zsj0500000gn/T//cc8MC9bm.s 			page 2


  34:Drivers/STM32F1xx_HAL_Driver/Src/stm32f1xx_hal_gpio.c ****   In Output or Alternate mode, each IO can be configured on open-drain or push-pull
  35:Drivers/STM32F1xx_HAL_Driver/Src/stm32f1xx_hal_gpio.c ****   type and the IO speed can be selected depending on the VDD value.
  36:Drivers/STM32F1xx_HAL_Driver/Src/stm32f1xx_hal_gpio.c **** 
  37:Drivers/STM32F1xx_HAL_Driver/Src/stm32f1xx_hal_gpio.c ****   [..]
  38:Drivers/STM32F1xx_HAL_Driver/Src/stm32f1xx_hal_gpio.c ****   All ports have external interrupt/event capability. To use external interrupt
  39:Drivers/STM32F1xx_HAL_Driver/Src/stm32f1xx_hal_gpio.c ****   lines, the port must be configured in input mode. All available GPIO pins are
  40:Drivers/STM32F1xx_HAL_Driver/Src/stm32f1xx_hal_gpio.c ****   connected to the 16 external interrupt/event lines from EXTI0 to EXTI15.
  41:Drivers/STM32F1xx_HAL_Driver/Src/stm32f1xx_hal_gpio.c **** 
  42:Drivers/STM32F1xx_HAL_Driver/Src/stm32f1xx_hal_gpio.c ****   [..]
  43:Drivers/STM32F1xx_HAL_Driver/Src/stm32f1xx_hal_gpio.c ****   The external interrupt/event controller consists of up to 20 edge detectors in connectivity
  44:Drivers/STM32F1xx_HAL_Driver/Src/stm32f1xx_hal_gpio.c ****   line devices, or 19 edge detectors in other devices for generating event/interrupt requests.
  45:Drivers/STM32F1xx_HAL_Driver/Src/stm32f1xx_hal_gpio.c ****   Each input line can be independently configured to select the type (event or interrupt) and
  46:Drivers/STM32F1xx_HAL_Driver/Src/stm32f1xx_hal_gpio.c ****   the corresponding trigger event (rising or falling or both). Each line can also masked
  47:Drivers/STM32F1xx_HAL_Driver/Src/stm32f1xx_hal_gpio.c ****   independently. A pending register maintains the status line of the interrupt requests
  48:Drivers/STM32F1xx_HAL_Driver/Src/stm32f1xx_hal_gpio.c **** 
  49:Drivers/STM32F1xx_HAL_Driver/Src/stm32f1xx_hal_gpio.c ****                      ##### How to use this driver #####
  50:Drivers/STM32F1xx_HAL_Driver/Src/stm32f1xx_hal_gpio.c ****   ==============================================================================
  51:Drivers/STM32F1xx_HAL_Driver/Src/stm32f1xx_hal_gpio.c ****  [..]
  52:Drivers/STM32F1xx_HAL_Driver/Src/stm32f1xx_hal_gpio.c ****    (#) Enable the GPIO APB2 clock using the following function : __HAL_RCC_GPIOx_CLK_ENABLE().
  53:Drivers/STM32F1xx_HAL_Driver/Src/stm32f1xx_hal_gpio.c **** 
  54:Drivers/STM32F1xx_HAL_Driver/Src/stm32f1xx_hal_gpio.c ****    (#) Configure the GPIO pin(s) using HAL_GPIO_Init().
  55:Drivers/STM32F1xx_HAL_Driver/Src/stm32f1xx_hal_gpio.c ****        (++) Configure the IO mode using "Mode" member from GPIO_InitTypeDef structure
  56:Drivers/STM32F1xx_HAL_Driver/Src/stm32f1xx_hal_gpio.c ****        (++) Activate Pull-up, Pull-down resistor using "Pull" member from GPIO_InitTypeDef
  57:Drivers/STM32F1xx_HAL_Driver/Src/stm32f1xx_hal_gpio.c ****             structure.
  58:Drivers/STM32F1xx_HAL_Driver/Src/stm32f1xx_hal_gpio.c ****        (++) In case of Output or alternate function mode selection: the speed is
  59:Drivers/STM32F1xx_HAL_Driver/Src/stm32f1xx_hal_gpio.c ****             configured through "Speed" member from GPIO_InitTypeDef structure
  60:Drivers/STM32F1xx_HAL_Driver/Src/stm32f1xx_hal_gpio.c ****        (++) Analog mode is required when a pin is to be used as ADC channel
  61:Drivers/STM32F1xx_HAL_Driver/Src/stm32f1xx_hal_gpio.c ****             or DAC output.
  62:Drivers/STM32F1xx_HAL_Driver/Src/stm32f1xx_hal_gpio.c ****        (++) In case of external interrupt/event selection the "Mode" member from
  63:Drivers/STM32F1xx_HAL_Driver/Src/stm32f1xx_hal_gpio.c ****             GPIO_InitTypeDef structure select the type (interrupt or event) and
  64:Drivers/STM32F1xx_HAL_Driver/Src/stm32f1xx_hal_gpio.c ****             the corresponding trigger event (rising or falling or both).
  65:Drivers/STM32F1xx_HAL_Driver/Src/stm32f1xx_hal_gpio.c **** 
  66:Drivers/STM32F1xx_HAL_Driver/Src/stm32f1xx_hal_gpio.c ****    (#) In case of external interrupt/event mode selection, configure NVIC IRQ priority
  67:Drivers/STM32F1xx_HAL_Driver/Src/stm32f1xx_hal_gpio.c ****        mapped to the EXTI line using HAL_NVIC_SetPriority() and enable it using
  68:Drivers/STM32F1xx_HAL_Driver/Src/stm32f1xx_hal_gpio.c ****        HAL_NVIC_EnableIRQ().
  69:Drivers/STM32F1xx_HAL_Driver/Src/stm32f1xx_hal_gpio.c **** 
  70:Drivers/STM32F1xx_HAL_Driver/Src/stm32f1xx_hal_gpio.c ****    (#) To get the level of a pin configured in input mode use HAL_GPIO_ReadPin().
  71:Drivers/STM32F1xx_HAL_Driver/Src/stm32f1xx_hal_gpio.c **** 
  72:Drivers/STM32F1xx_HAL_Driver/Src/stm32f1xx_hal_gpio.c ****    (#) To set/reset the level of a pin configured in output mode use
  73:Drivers/STM32F1xx_HAL_Driver/Src/stm32f1xx_hal_gpio.c ****        HAL_GPIO_WritePin()/HAL_GPIO_TogglePin().
  74:Drivers/STM32F1xx_HAL_Driver/Src/stm32f1xx_hal_gpio.c **** 
  75:Drivers/STM32F1xx_HAL_Driver/Src/stm32f1xx_hal_gpio.c ****    (#) To lock pin configuration until next reset use HAL_GPIO_LockPin().
  76:Drivers/STM32F1xx_HAL_Driver/Src/stm32f1xx_hal_gpio.c **** 
  77:Drivers/STM32F1xx_HAL_Driver/Src/stm32f1xx_hal_gpio.c ****    (#) During and just after reset, the alternate functions are not
  78:Drivers/STM32F1xx_HAL_Driver/Src/stm32f1xx_hal_gpio.c ****        active and the GPIO pins are configured in input floating mode (except JTAG
  79:Drivers/STM32F1xx_HAL_Driver/Src/stm32f1xx_hal_gpio.c ****        pins).
  80:Drivers/STM32F1xx_HAL_Driver/Src/stm32f1xx_hal_gpio.c **** 
  81:Drivers/STM32F1xx_HAL_Driver/Src/stm32f1xx_hal_gpio.c ****    (#) The LSE oscillator pins OSC32_IN and OSC32_OUT can be used as general purpose
  82:Drivers/STM32F1xx_HAL_Driver/Src/stm32f1xx_hal_gpio.c ****        (PC14 and PC15, respectively) when the LSE oscillator is off. The LSE has
  83:Drivers/STM32F1xx_HAL_Driver/Src/stm32f1xx_hal_gpio.c ****        priority over the GPIO function.
  84:Drivers/STM32F1xx_HAL_Driver/Src/stm32f1xx_hal_gpio.c **** 
  85:Drivers/STM32F1xx_HAL_Driver/Src/stm32f1xx_hal_gpio.c ****    (#) The HSE oscillator pins OSC_IN/OSC_OUT can be used as
  86:Drivers/STM32F1xx_HAL_Driver/Src/stm32f1xx_hal_gpio.c ****        general purpose PD0 and PD1, respectively, when the HSE oscillator is off.
  87:Drivers/STM32F1xx_HAL_Driver/Src/stm32f1xx_hal_gpio.c ****        The HSE has priority over the GPIO function.
  88:Drivers/STM32F1xx_HAL_Driver/Src/stm32f1xx_hal_gpio.c **** 
  89:Drivers/STM32F1xx_HAL_Driver/Src/stm32f1xx_hal_gpio.c ****   @endverbatim
  90:Drivers/STM32F1xx_HAL_Driver/Src/stm32f1xx_hal_gpio.c ****   ******************************************************************************
ARM GAS  /var/folders/xw/ncjdtmf133b976k652zsj0500000gn/T//cc8MC9bm.s 			page 3


  91:Drivers/STM32F1xx_HAL_Driver/Src/stm32f1xx_hal_gpio.c ****   * @attention
  92:Drivers/STM32F1xx_HAL_Driver/Src/stm32f1xx_hal_gpio.c ****   *
  93:Drivers/STM32F1xx_HAL_Driver/Src/stm32f1xx_hal_gpio.c ****   * <h2><center>&copy; COPYRIGHT(c) 2016 STMicroelectronics</center></h2>
  94:Drivers/STM32F1xx_HAL_Driver/Src/stm32f1xx_hal_gpio.c ****   *
  95:Drivers/STM32F1xx_HAL_Driver/Src/stm32f1xx_hal_gpio.c ****   * Redistribution and use in source and binary forms, with or without modification,
  96:Drivers/STM32F1xx_HAL_Driver/Src/stm32f1xx_hal_gpio.c ****   * are permitted provided that the following conditions are met:
  97:Drivers/STM32F1xx_HAL_Driver/Src/stm32f1xx_hal_gpio.c ****   *   1. Redistributions of source code must retain the above copyright notice,
  98:Drivers/STM32F1xx_HAL_Driver/Src/stm32f1xx_hal_gpio.c ****   *      this list of conditions and the following disclaimer.
  99:Drivers/STM32F1xx_HAL_Driver/Src/stm32f1xx_hal_gpio.c ****   *   2. Redistributions in binary form must reproduce the above copyright notice,
 100:Drivers/STM32F1xx_HAL_Driver/Src/stm32f1xx_hal_gpio.c ****   *      this list of conditions and the following disclaimer in the documentation
 101:Drivers/STM32F1xx_HAL_Driver/Src/stm32f1xx_hal_gpio.c ****   *      and/or other materials provided with the distribution.
 102:Drivers/STM32F1xx_HAL_Driver/Src/stm32f1xx_hal_gpio.c ****   *   3. Neither the name of STMicroelectronics nor the names of its contributors
 103:Drivers/STM32F1xx_HAL_Driver/Src/stm32f1xx_hal_gpio.c ****   *      may be used to endorse or promote products derived from this software
 104:Drivers/STM32F1xx_HAL_Driver/Src/stm32f1xx_hal_gpio.c ****   *      without specific prior written permission.
 105:Drivers/STM32F1xx_HAL_Driver/Src/stm32f1xx_hal_gpio.c ****   *
 106:Drivers/STM32F1xx_HAL_Driver/Src/stm32f1xx_hal_gpio.c ****   * THIS SOFTWARE IS PROVIDED BY THE COPYRIGHT HOLDERS AND CONTRIBUTORS "AS IS"
 107:Drivers/STM32F1xx_HAL_Driver/Src/stm32f1xx_hal_gpio.c ****   * AND ANY EXPRESS OR IMPLIED WARRANTIES, INCLUDING, BUT NOT LIMITED TO, THE
 108:Drivers/STM32F1xx_HAL_Driver/Src/stm32f1xx_hal_gpio.c ****   * IMPLIED WARRANTIES OF MERCHANTABILITY AND FITNESS FOR A PARTICULAR PURPOSE ARE
 109:Drivers/STM32F1xx_HAL_Driver/Src/stm32f1xx_hal_gpio.c ****   * DISCLAIMED. IN NO EVENT SHALL THE COPYRIGHT HOLDER OR CONTRIBUTORS BE LIABLE
 110:Drivers/STM32F1xx_HAL_Driver/Src/stm32f1xx_hal_gpio.c ****   * FOR ANY DIRECT, INDIRECT, INCIDENTAL, SPECIAL, EXEMPLARY, OR CONSEQUENTIAL
 111:Drivers/STM32F1xx_HAL_Driver/Src/stm32f1xx_hal_gpio.c ****   * DAMAGES (INCLUDING, BUT NOT LIMITED TO, PROCUREMENT OF SUBSTITUTE GOODS OR
 112:Drivers/STM32F1xx_HAL_Driver/Src/stm32f1xx_hal_gpio.c ****   * SERVICES; LOSS OF USE, DATA, OR PROFITS; OR BUSINESS INTERRUPTION) HOWEVER
 113:Drivers/STM32F1xx_HAL_Driver/Src/stm32f1xx_hal_gpio.c ****   * CAUSED AND ON ANY THEORY OF LIABILITY, WHETHER IN CONTRACT, STRICT LIABILITY,
 114:Drivers/STM32F1xx_HAL_Driver/Src/stm32f1xx_hal_gpio.c ****   * OR TORT (INCLUDING NEGLIGENCE OR OTHERWISE) ARISING IN ANY WAY OUT OF THE USE
 115:Drivers/STM32F1xx_HAL_Driver/Src/stm32f1xx_hal_gpio.c ****   * OF THIS SOFTWARE, EVEN IF ADVISED OF THE POSSIBILITY OF SUCH DAMAGE.
 116:Drivers/STM32F1xx_HAL_Driver/Src/stm32f1xx_hal_gpio.c ****   *
 117:Drivers/STM32F1xx_HAL_Driver/Src/stm32f1xx_hal_gpio.c ****   ******************************************************************************
 118:Drivers/STM32F1xx_HAL_Driver/Src/stm32f1xx_hal_gpio.c ****   */
 119:Drivers/STM32F1xx_HAL_Driver/Src/stm32f1xx_hal_gpio.c **** 
 120:Drivers/STM32F1xx_HAL_Driver/Src/stm32f1xx_hal_gpio.c **** /* Includes ------------------------------------------------------------------*/
 121:Drivers/STM32F1xx_HAL_Driver/Src/stm32f1xx_hal_gpio.c **** #include "stm32f1xx_hal.h"
 122:Drivers/STM32F1xx_HAL_Driver/Src/stm32f1xx_hal_gpio.c **** 
 123:Drivers/STM32F1xx_HAL_Driver/Src/stm32f1xx_hal_gpio.c **** /** @addtogroup STM32F1xx_HAL_Driver
 124:Drivers/STM32F1xx_HAL_Driver/Src/stm32f1xx_hal_gpio.c ****   * @{
 125:Drivers/STM32F1xx_HAL_Driver/Src/stm32f1xx_hal_gpio.c ****   */
 126:Drivers/STM32F1xx_HAL_Driver/Src/stm32f1xx_hal_gpio.c **** 
 127:Drivers/STM32F1xx_HAL_Driver/Src/stm32f1xx_hal_gpio.c **** /** @defgroup GPIO GPIO
 128:Drivers/STM32F1xx_HAL_Driver/Src/stm32f1xx_hal_gpio.c ****   * @brief GPIO HAL module driver
 129:Drivers/STM32F1xx_HAL_Driver/Src/stm32f1xx_hal_gpio.c ****   * @{
 130:Drivers/STM32F1xx_HAL_Driver/Src/stm32f1xx_hal_gpio.c ****   */
 131:Drivers/STM32F1xx_HAL_Driver/Src/stm32f1xx_hal_gpio.c **** 
 132:Drivers/STM32F1xx_HAL_Driver/Src/stm32f1xx_hal_gpio.c **** #ifdef HAL_GPIO_MODULE_ENABLED
 133:Drivers/STM32F1xx_HAL_Driver/Src/stm32f1xx_hal_gpio.c **** 
 134:Drivers/STM32F1xx_HAL_Driver/Src/stm32f1xx_hal_gpio.c **** /* Private typedef -----------------------------------------------------------*/
 135:Drivers/STM32F1xx_HAL_Driver/Src/stm32f1xx_hal_gpio.c **** /* Private define ------------------------------------------------------------*/
 136:Drivers/STM32F1xx_HAL_Driver/Src/stm32f1xx_hal_gpio.c **** /** @addtogroup GPIO_Private_Constants GPIO Private Constants
 137:Drivers/STM32F1xx_HAL_Driver/Src/stm32f1xx_hal_gpio.c ****   * @{
 138:Drivers/STM32F1xx_HAL_Driver/Src/stm32f1xx_hal_gpio.c ****   */
 139:Drivers/STM32F1xx_HAL_Driver/Src/stm32f1xx_hal_gpio.c **** #define GPIO_MODE             0x00000003U
 140:Drivers/STM32F1xx_HAL_Driver/Src/stm32f1xx_hal_gpio.c **** #define EXTI_MODE             0x10000000U
 141:Drivers/STM32F1xx_HAL_Driver/Src/stm32f1xx_hal_gpio.c **** #define GPIO_MODE_IT          0x00010000U
 142:Drivers/STM32F1xx_HAL_Driver/Src/stm32f1xx_hal_gpio.c **** #define GPIO_MODE_EVT         0x00020000U
 143:Drivers/STM32F1xx_HAL_Driver/Src/stm32f1xx_hal_gpio.c **** #define RISING_EDGE           0x00100000U
 144:Drivers/STM32F1xx_HAL_Driver/Src/stm32f1xx_hal_gpio.c **** #define FALLING_EDGE          0x00200000U
 145:Drivers/STM32F1xx_HAL_Driver/Src/stm32f1xx_hal_gpio.c **** #define GPIO_OUTPUT_TYPE      0x00000010U
 146:Drivers/STM32F1xx_HAL_Driver/Src/stm32f1xx_hal_gpio.c **** 
 147:Drivers/STM32F1xx_HAL_Driver/Src/stm32f1xx_hal_gpio.c **** #define GPIO_NUMBER           16U
ARM GAS  /var/folders/xw/ncjdtmf133b976k652zsj0500000gn/T//cc8MC9bm.s 			page 4


 148:Drivers/STM32F1xx_HAL_Driver/Src/stm32f1xx_hal_gpio.c **** 
 149:Drivers/STM32F1xx_HAL_Driver/Src/stm32f1xx_hal_gpio.c **** /* Definitions for bit manipulation of CRL and CRH register */
 150:Drivers/STM32F1xx_HAL_Driver/Src/stm32f1xx_hal_gpio.c **** #define  GPIO_CR_MODE_INPUT         0x00000000U /*!< 00: Input mode (reset state)  */
 151:Drivers/STM32F1xx_HAL_Driver/Src/stm32f1xx_hal_gpio.c **** #define  GPIO_CR_CNF_ANALOG         0x00000000U /*!< 00: Analog mode  */
 152:Drivers/STM32F1xx_HAL_Driver/Src/stm32f1xx_hal_gpio.c **** #define  GPIO_CR_CNF_INPUT_FLOATING 0x00000004U /*!< 01: Floating input (reset state)  */
 153:Drivers/STM32F1xx_HAL_Driver/Src/stm32f1xx_hal_gpio.c **** #define  GPIO_CR_CNF_INPUT_PU_PD    0x00000008U /*!< 10: Input with pull-up / pull-down  */
 154:Drivers/STM32F1xx_HAL_Driver/Src/stm32f1xx_hal_gpio.c **** #define  GPIO_CR_CNF_GP_OUTPUT_PP   0x00000000U /*!< 00: General purpose output push-pull  */
 155:Drivers/STM32F1xx_HAL_Driver/Src/stm32f1xx_hal_gpio.c **** #define  GPIO_CR_CNF_GP_OUTPUT_OD   0x00000004U /*!< 01: General purpose output Open-drain  */
 156:Drivers/STM32F1xx_HAL_Driver/Src/stm32f1xx_hal_gpio.c **** #define  GPIO_CR_CNF_AF_OUTPUT_PP   0x00000008U /*!< 10: Alternate function output Push-pull  */
 157:Drivers/STM32F1xx_HAL_Driver/Src/stm32f1xx_hal_gpio.c **** #define  GPIO_CR_CNF_AF_OUTPUT_OD   0x0000000CU /*!< 11: Alternate function output Open-drain  */
 158:Drivers/STM32F1xx_HAL_Driver/Src/stm32f1xx_hal_gpio.c **** 
 159:Drivers/STM32F1xx_HAL_Driver/Src/stm32f1xx_hal_gpio.c **** /**
 160:Drivers/STM32F1xx_HAL_Driver/Src/stm32f1xx_hal_gpio.c ****   * @}
 161:Drivers/STM32F1xx_HAL_Driver/Src/stm32f1xx_hal_gpio.c ****   */
 162:Drivers/STM32F1xx_HAL_Driver/Src/stm32f1xx_hal_gpio.c **** /* Private macro -------------------------------------------------------------*/
 163:Drivers/STM32F1xx_HAL_Driver/Src/stm32f1xx_hal_gpio.c **** /* Private variables ---------------------------------------------------------*/
 164:Drivers/STM32F1xx_HAL_Driver/Src/stm32f1xx_hal_gpio.c **** /* Private function prototypes -----------------------------------------------*/
 165:Drivers/STM32F1xx_HAL_Driver/Src/stm32f1xx_hal_gpio.c **** /* Private functions ---------------------------------------------------------*/
 166:Drivers/STM32F1xx_HAL_Driver/Src/stm32f1xx_hal_gpio.c **** /* Exported functions --------------------------------------------------------*/
 167:Drivers/STM32F1xx_HAL_Driver/Src/stm32f1xx_hal_gpio.c **** /** @defgroup GPIO_Exported_Functions GPIO Exported Functions
 168:Drivers/STM32F1xx_HAL_Driver/Src/stm32f1xx_hal_gpio.c ****   * @{
 169:Drivers/STM32F1xx_HAL_Driver/Src/stm32f1xx_hal_gpio.c ****   */
 170:Drivers/STM32F1xx_HAL_Driver/Src/stm32f1xx_hal_gpio.c **** 
 171:Drivers/STM32F1xx_HAL_Driver/Src/stm32f1xx_hal_gpio.c **** /** @defgroup GPIO_Exported_Functions_Group1 Initialization and de-initialization functions
 172:Drivers/STM32F1xx_HAL_Driver/Src/stm32f1xx_hal_gpio.c ****  *  @brief    Initialization and Configuration functions
 173:Drivers/STM32F1xx_HAL_Driver/Src/stm32f1xx_hal_gpio.c ****  *
 174:Drivers/STM32F1xx_HAL_Driver/Src/stm32f1xx_hal_gpio.c **** @verbatim
 175:Drivers/STM32F1xx_HAL_Driver/Src/stm32f1xx_hal_gpio.c ****  ===============================================================================
 176:Drivers/STM32F1xx_HAL_Driver/Src/stm32f1xx_hal_gpio.c ****               ##### Initialization and de-initialization functions #####
 177:Drivers/STM32F1xx_HAL_Driver/Src/stm32f1xx_hal_gpio.c ****  ===============================================================================
 178:Drivers/STM32F1xx_HAL_Driver/Src/stm32f1xx_hal_gpio.c ****   [..]
 179:Drivers/STM32F1xx_HAL_Driver/Src/stm32f1xx_hal_gpio.c ****     This section provides functions allowing to initialize and de-initialize the GPIOs
 180:Drivers/STM32F1xx_HAL_Driver/Src/stm32f1xx_hal_gpio.c ****     to be ready for use.
 181:Drivers/STM32F1xx_HAL_Driver/Src/stm32f1xx_hal_gpio.c **** 
 182:Drivers/STM32F1xx_HAL_Driver/Src/stm32f1xx_hal_gpio.c **** @endverbatim
 183:Drivers/STM32F1xx_HAL_Driver/Src/stm32f1xx_hal_gpio.c ****   * @{
 184:Drivers/STM32F1xx_HAL_Driver/Src/stm32f1xx_hal_gpio.c ****   */
 185:Drivers/STM32F1xx_HAL_Driver/Src/stm32f1xx_hal_gpio.c **** 
 186:Drivers/STM32F1xx_HAL_Driver/Src/stm32f1xx_hal_gpio.c **** 
 187:Drivers/STM32F1xx_HAL_Driver/Src/stm32f1xx_hal_gpio.c **** /**
 188:Drivers/STM32F1xx_HAL_Driver/Src/stm32f1xx_hal_gpio.c ****   * @brief  Initializes the GPIOx peripheral according to the specified parameters in the GPIO_Init
 189:Drivers/STM32F1xx_HAL_Driver/Src/stm32f1xx_hal_gpio.c ****   * @param  GPIOx: where x can be (A..G depending on device used) to select the GPIO peripheral
 190:Drivers/STM32F1xx_HAL_Driver/Src/stm32f1xx_hal_gpio.c ****   * @param  GPIO_Init: pointer to a GPIO_InitTypeDef structure that contains
 191:Drivers/STM32F1xx_HAL_Driver/Src/stm32f1xx_hal_gpio.c ****   *         the configuration information for the specified GPIO peripheral.
 192:Drivers/STM32F1xx_HAL_Driver/Src/stm32f1xx_hal_gpio.c ****   * @retval None
 193:Drivers/STM32F1xx_HAL_Driver/Src/stm32f1xx_hal_gpio.c ****   */
 194:Drivers/STM32F1xx_HAL_Driver/Src/stm32f1xx_hal_gpio.c **** void HAL_GPIO_Init(GPIO_TypeDef  *GPIOx, GPIO_InitTypeDef *GPIO_Init)
 195:Drivers/STM32F1xx_HAL_Driver/Src/stm32f1xx_hal_gpio.c **** {
  26              		.loc 1 195 0
  27              		.cfi_startproc
  28              		@ args = 0, pretend = 0, frame = 8
  29              		@ frame_needed = 0, uses_anonymous_args = 0
  30              	.LVL0:
  31 0000 2DE9F043 		push	{r4, r5, r6, r7, r8, r9, lr}
  32              	.LCFI0:
  33              		.cfi_def_cfa_offset 28
  34              		.cfi_offset 4, -28
ARM GAS  /var/folders/xw/ncjdtmf133b976k652zsj0500000gn/T//cc8MC9bm.s 			page 5


  35              		.cfi_offset 5, -24
  36              		.cfi_offset 6, -20
  37              		.cfi_offset 7, -16
  38              		.cfi_offset 8, -12
  39              		.cfi_offset 9, -8
  40              		.cfi_offset 14, -4
  41 0004 83B0     		sub	sp, sp, #12
  42              	.LCFI1:
  43              		.cfi_def_cfa_offset 40
  44 0006 8046     		mov	r8, r0
  45 0008 0F46     		mov	r7, r1
  46              	.LVL1:
 196:Drivers/STM32F1xx_HAL_Driver/Src/stm32f1xx_hal_gpio.c ****   uint32_t position;
 197:Drivers/STM32F1xx_HAL_Driver/Src/stm32f1xx_hal_gpio.c ****   uint32_t ioposition = 0x00U;
 198:Drivers/STM32F1xx_HAL_Driver/Src/stm32f1xx_hal_gpio.c ****   uint32_t iocurrent = 0x00U;
 199:Drivers/STM32F1xx_HAL_Driver/Src/stm32f1xx_hal_gpio.c ****   uint32_t temp = 0x00U;
 200:Drivers/STM32F1xx_HAL_Driver/Src/stm32f1xx_hal_gpio.c ****   uint32_t config = 0x00U;
 201:Drivers/STM32F1xx_HAL_Driver/Src/stm32f1xx_hal_gpio.c ****   __IO uint32_t *configregister; /* Store the address of CRL or CRH register based on pin number */
 202:Drivers/STM32F1xx_HAL_Driver/Src/stm32f1xx_hal_gpio.c ****   uint32_t registeroffset = 0U; /* offset used during computation of CNF and MODE bits placement in
 203:Drivers/STM32F1xx_HAL_Driver/Src/stm32f1xx_hal_gpio.c **** 
 204:Drivers/STM32F1xx_HAL_Driver/Src/stm32f1xx_hal_gpio.c ****   /* Check the parameters */
 205:Drivers/STM32F1xx_HAL_Driver/Src/stm32f1xx_hal_gpio.c ****   assert_param(IS_GPIO_ALL_INSTANCE(GPIOx));
  47              		.loc 1 205 0
  48 000a B64B     		ldr	r3, .L56
  49 000c 9842     		cmp	r0, r3
  50 000e 13D0     		beq	.L2
  51              		.loc 1 205 0 is_stmt 0 discriminator 1
  52 0010 03F58063 		add	r3, r3, #1024
  53 0014 9842     		cmp	r0, r3
  54 0016 0FD0     		beq	.L2
  55              		.loc 1 205 0 discriminator 2
  56 0018 03F58063 		add	r3, r3, #1024
  57 001c 9842     		cmp	r0, r3
  58 001e 0BD0     		beq	.L2
  59              		.loc 1 205 0 discriminator 3
  60 0020 03F58063 		add	r3, r3, #1024
  61 0024 9842     		cmp	r0, r3
  62 0026 07D0     		beq	.L2
  63              		.loc 1 205 0 discriminator 4
  64 0028 03F58063 		add	r3, r3, #1024
  65 002c 9842     		cmp	r0, r3
  66 002e 03D0     		beq	.L2
  67              		.loc 1 205 0 discriminator 5
  68 0030 CD21     		movs	r1, #205
  69              	.LVL2:
  70 0032 AD48     		ldr	r0, .L56+4
  71              	.LVL3:
  72 0034 FFF7FEFF 		bl	assert_failed
  73              	.LVL4:
  74              	.L2:
 206:Drivers/STM32F1xx_HAL_Driver/Src/stm32f1xx_hal_gpio.c ****   assert_param(IS_GPIO_PIN(GPIO_Init->Pin));
  75              		.loc 1 206 0 is_stmt 1
  76 0038 3B68     		ldr	r3, [r7]
  77 003a 9AB2     		uxth	r2, r3
  78 003c 12B1     		cbz	r2, .L3
  79              		.loc 1 206 0 is_stmt 0 discriminator 2
  80 003e 1B0C     		lsrs	r3, r3, #16
ARM GAS  /var/folders/xw/ncjdtmf133b976k652zsj0500000gn/T//cc8MC9bm.s 			page 6


  81 0040 1B04     		lsls	r3, r3, #16
  82 0042 1BB1     		cbz	r3, .L4
  83              	.L3:
  84              		.loc 1 206 0 discriminator 3
  85 0044 CE21     		movs	r1, #206
  86 0046 A848     		ldr	r0, .L56+4
  87 0048 FFF7FEFF 		bl	assert_failed
  88              	.LVL5:
  89              	.L4:
 207:Drivers/STM32F1xx_HAL_Driver/Src/stm32f1xx_hal_gpio.c ****   assert_param(IS_GPIO_MODE(GPIO_Init->Mode));
  90              		.loc 1 207 0 is_stmt 1
  91 004c 7B68     		ldr	r3, [r7, #4]
  92 004e 012B     		cmp	r3, #1
  93 0050 1ED9     		bls	.L5
  94              		.loc 1 207 0 is_stmt 0 discriminator 1
  95 0052 112B     		cmp	r3, #17
  96 0054 1CD0     		beq	.L5
  97              		.loc 1 207 0 discriminator 2
  98 0056 022B     		cmp	r3, #2
  99 0058 1AD0     		beq	.L5
 100              		.loc 1 207 0 discriminator 3
 101 005a 122B     		cmp	r3, #18
 102 005c 18D0     		beq	.L5
 103              		.loc 1 207 0 discriminator 4
 104 005e A34A     		ldr	r2, .L56+8
 105 0060 9342     		cmp	r3, r2
 106 0062 15D0     		beq	.L5
 107              		.loc 1 207 0 discriminator 5
 108 0064 02F58012 		add	r2, r2, #1048576
 109 0068 9342     		cmp	r3, r2
 110 006a 11D0     		beq	.L5
 111              		.loc 1 207 0 discriminator 6
 112 006c 02F58012 		add	r2, r2, #1048576
 113 0070 9342     		cmp	r3, r2
 114 0072 0DD0     		beq	.L5
 115              		.loc 1 207 0 discriminator 7
 116 0074 A2F5F812 		sub	r2, r2, #2031616
 117 0078 9342     		cmp	r3, r2
 118 007a 09D0     		beq	.L5
 119              		.loc 1 207 0 discriminator 8
 120 007c 02F58012 		add	r2, r2, #1048576
 121 0080 9342     		cmp	r3, r2
 122 0082 05D0     		beq	.L5
 123              		.loc 1 207 0 discriminator 9
 124 0084 02F58012 		add	r2, r2, #1048576
 125 0088 9342     		cmp	r3, r2
 126 008a 01D0     		beq	.L5
 127              		.loc 1 207 0 discriminator 10
 128 008c 032B     		cmp	r3, #3
 129 008e 03D1     		bne	.L45
 130              	.L5:
 208:Drivers/STM32F1xx_HAL_Driver/Src/stm32f1xx_hal_gpio.c **** 
 209:Drivers/STM32F1xx_HAL_Driver/Src/stm32f1xx_hal_gpio.c ****   /* Configure the port pins */
 210:Drivers/STM32F1xx_HAL_Driver/Src/stm32f1xx_hal_gpio.c ****   for (position = 0U; position < GPIO_NUMBER; position++)
 211:Drivers/STM32F1xx_HAL_Driver/Src/stm32f1xx_hal_gpio.c ****   {
 212:Drivers/STM32F1xx_HAL_Driver/Src/stm32f1xx_hal_gpio.c ****     /* Get the IO position */
 213:Drivers/STM32F1xx_HAL_Driver/Src/stm32f1xx_hal_gpio.c ****     ioposition = (0x01U << position);
ARM GAS  /var/folders/xw/ncjdtmf133b976k652zsj0500000gn/T//cc8MC9bm.s 			page 7


 214:Drivers/STM32F1xx_HAL_Driver/Src/stm32f1xx_hal_gpio.c **** 
 215:Drivers/STM32F1xx_HAL_Driver/Src/stm32f1xx_hal_gpio.c ****     /* Get the current IO position */
 216:Drivers/STM32F1xx_HAL_Driver/Src/stm32f1xx_hal_gpio.c ****     iocurrent = (uint32_t)(GPIO_Init->Pin) & ioposition;
 217:Drivers/STM32F1xx_HAL_Driver/Src/stm32f1xx_hal_gpio.c **** 
 218:Drivers/STM32F1xx_HAL_Driver/Src/stm32f1xx_hal_gpio.c ****     if (iocurrent == ioposition)
 219:Drivers/STM32F1xx_HAL_Driver/Src/stm32f1xx_hal_gpio.c ****     {
 220:Drivers/STM32F1xx_HAL_Driver/Src/stm32f1xx_hal_gpio.c ****       /* Check the Alternate function parameters */
 221:Drivers/STM32F1xx_HAL_Driver/Src/stm32f1xx_hal_gpio.c ****       assert_param(IS_GPIO_AF_INSTANCE(GPIOx));
 222:Drivers/STM32F1xx_HAL_Driver/Src/stm32f1xx_hal_gpio.c **** 
 223:Drivers/STM32F1xx_HAL_Driver/Src/stm32f1xx_hal_gpio.c ****       /* Based on the required mode, filling config variable with MODEy[1:0] and CNFy[3:2] correspo
 224:Drivers/STM32F1xx_HAL_Driver/Src/stm32f1xx_hal_gpio.c ****       switch (GPIO_Init->Mode)
 225:Drivers/STM32F1xx_HAL_Driver/Src/stm32f1xx_hal_gpio.c ****       {
 226:Drivers/STM32F1xx_HAL_Driver/Src/stm32f1xx_hal_gpio.c ****         /* If we are configuring the pin in OUTPUT push-pull mode */
 227:Drivers/STM32F1xx_HAL_Driver/Src/stm32f1xx_hal_gpio.c ****         case GPIO_MODE_OUTPUT_PP:
 228:Drivers/STM32F1xx_HAL_Driver/Src/stm32f1xx_hal_gpio.c ****           /* Check the GPIO speed parameter */
 229:Drivers/STM32F1xx_HAL_Driver/Src/stm32f1xx_hal_gpio.c ****           assert_param(IS_GPIO_SPEED(GPIO_Init->Speed));
 230:Drivers/STM32F1xx_HAL_Driver/Src/stm32f1xx_hal_gpio.c ****           config = GPIO_Init->Speed + GPIO_CR_CNF_GP_OUTPUT_PP;
 231:Drivers/STM32F1xx_HAL_Driver/Src/stm32f1xx_hal_gpio.c ****           break;
 232:Drivers/STM32F1xx_HAL_Driver/Src/stm32f1xx_hal_gpio.c **** 
 233:Drivers/STM32F1xx_HAL_Driver/Src/stm32f1xx_hal_gpio.c ****         /* If we are configuring the pin in OUTPUT open-drain mode */
 234:Drivers/STM32F1xx_HAL_Driver/Src/stm32f1xx_hal_gpio.c ****         case GPIO_MODE_OUTPUT_OD:
 235:Drivers/STM32F1xx_HAL_Driver/Src/stm32f1xx_hal_gpio.c ****           /* Check the GPIO speed parameter */
 236:Drivers/STM32F1xx_HAL_Driver/Src/stm32f1xx_hal_gpio.c ****           assert_param(IS_GPIO_SPEED(GPIO_Init->Speed));
 237:Drivers/STM32F1xx_HAL_Driver/Src/stm32f1xx_hal_gpio.c ****           config = GPIO_Init->Speed + GPIO_CR_CNF_GP_OUTPUT_OD;
 238:Drivers/STM32F1xx_HAL_Driver/Src/stm32f1xx_hal_gpio.c ****           break;
 239:Drivers/STM32F1xx_HAL_Driver/Src/stm32f1xx_hal_gpio.c **** 
 240:Drivers/STM32F1xx_HAL_Driver/Src/stm32f1xx_hal_gpio.c ****         /* If we are configuring the pin in ALTERNATE FUNCTION push-pull mode */
 241:Drivers/STM32F1xx_HAL_Driver/Src/stm32f1xx_hal_gpio.c ****         case GPIO_MODE_AF_PP:
 242:Drivers/STM32F1xx_HAL_Driver/Src/stm32f1xx_hal_gpio.c ****           /* Check the GPIO speed parameter */
 243:Drivers/STM32F1xx_HAL_Driver/Src/stm32f1xx_hal_gpio.c ****           assert_param(IS_GPIO_SPEED(GPIO_Init->Speed));
 244:Drivers/STM32F1xx_HAL_Driver/Src/stm32f1xx_hal_gpio.c ****           config = GPIO_Init->Speed + GPIO_CR_CNF_AF_OUTPUT_PP;
 245:Drivers/STM32F1xx_HAL_Driver/Src/stm32f1xx_hal_gpio.c ****           break;
 246:Drivers/STM32F1xx_HAL_Driver/Src/stm32f1xx_hal_gpio.c **** 
 247:Drivers/STM32F1xx_HAL_Driver/Src/stm32f1xx_hal_gpio.c ****         /* If we are configuring the pin in ALTERNATE FUNCTION open-drain mode */
 248:Drivers/STM32F1xx_HAL_Driver/Src/stm32f1xx_hal_gpio.c ****         case GPIO_MODE_AF_OD:
 249:Drivers/STM32F1xx_HAL_Driver/Src/stm32f1xx_hal_gpio.c ****           /* Check the GPIO speed parameter */
 250:Drivers/STM32F1xx_HAL_Driver/Src/stm32f1xx_hal_gpio.c ****           assert_param(IS_GPIO_SPEED(GPIO_Init->Speed));
 251:Drivers/STM32F1xx_HAL_Driver/Src/stm32f1xx_hal_gpio.c ****           config = GPIO_Init->Speed + GPIO_CR_CNF_AF_OUTPUT_OD;
 252:Drivers/STM32F1xx_HAL_Driver/Src/stm32f1xx_hal_gpio.c ****           break;
 253:Drivers/STM32F1xx_HAL_Driver/Src/stm32f1xx_hal_gpio.c **** 
 254:Drivers/STM32F1xx_HAL_Driver/Src/stm32f1xx_hal_gpio.c ****         /* If we are configuring the pin in INPUT (also applicable to EVENT and IT mode) */
 255:Drivers/STM32F1xx_HAL_Driver/Src/stm32f1xx_hal_gpio.c ****         case GPIO_MODE_INPUT:
 256:Drivers/STM32F1xx_HAL_Driver/Src/stm32f1xx_hal_gpio.c ****         case GPIO_MODE_IT_RISING:
 257:Drivers/STM32F1xx_HAL_Driver/Src/stm32f1xx_hal_gpio.c ****         case GPIO_MODE_IT_FALLING:
 258:Drivers/STM32F1xx_HAL_Driver/Src/stm32f1xx_hal_gpio.c ****         case GPIO_MODE_IT_RISING_FALLING:
 259:Drivers/STM32F1xx_HAL_Driver/Src/stm32f1xx_hal_gpio.c ****         case GPIO_MODE_EVT_RISING:
 260:Drivers/STM32F1xx_HAL_Driver/Src/stm32f1xx_hal_gpio.c ****         case GPIO_MODE_EVT_FALLING:
 261:Drivers/STM32F1xx_HAL_Driver/Src/stm32f1xx_hal_gpio.c ****         case GPIO_MODE_EVT_RISING_FALLING:
 262:Drivers/STM32F1xx_HAL_Driver/Src/stm32f1xx_hal_gpio.c ****           /* Check the GPIO pull parameter */
 263:Drivers/STM32F1xx_HAL_Driver/Src/stm32f1xx_hal_gpio.c ****           assert_param(IS_GPIO_PULL(GPIO_Init->Pull));
 264:Drivers/STM32F1xx_HAL_Driver/Src/stm32f1xx_hal_gpio.c ****           if (GPIO_Init->Pull == GPIO_NOPULL)
 265:Drivers/STM32F1xx_HAL_Driver/Src/stm32f1xx_hal_gpio.c ****           {
 266:Drivers/STM32F1xx_HAL_Driver/Src/stm32f1xx_hal_gpio.c ****             config = GPIO_CR_MODE_INPUT + GPIO_CR_CNF_INPUT_FLOATING;
 267:Drivers/STM32F1xx_HAL_Driver/Src/stm32f1xx_hal_gpio.c ****           }
 268:Drivers/STM32F1xx_HAL_Driver/Src/stm32f1xx_hal_gpio.c ****           else if (GPIO_Init->Pull == GPIO_PULLUP)
 269:Drivers/STM32F1xx_HAL_Driver/Src/stm32f1xx_hal_gpio.c ****           {
 270:Drivers/STM32F1xx_HAL_Driver/Src/stm32f1xx_hal_gpio.c ****             config = GPIO_CR_MODE_INPUT + GPIO_CR_CNF_INPUT_PU_PD;
ARM GAS  /var/folders/xw/ncjdtmf133b976k652zsj0500000gn/T//cc8MC9bm.s 			page 8


 271:Drivers/STM32F1xx_HAL_Driver/Src/stm32f1xx_hal_gpio.c **** 
 272:Drivers/STM32F1xx_HAL_Driver/Src/stm32f1xx_hal_gpio.c ****             /* Set the corresponding ODR bit */
 273:Drivers/STM32F1xx_HAL_Driver/Src/stm32f1xx_hal_gpio.c ****             GPIOx->BSRR = ioposition;
 274:Drivers/STM32F1xx_HAL_Driver/Src/stm32f1xx_hal_gpio.c ****           }
 275:Drivers/STM32F1xx_HAL_Driver/Src/stm32f1xx_hal_gpio.c ****           else /* GPIO_PULLDOWN */
 276:Drivers/STM32F1xx_HAL_Driver/Src/stm32f1xx_hal_gpio.c ****           {
 277:Drivers/STM32F1xx_HAL_Driver/Src/stm32f1xx_hal_gpio.c ****             config = GPIO_CR_MODE_INPUT + GPIO_CR_CNF_INPUT_PU_PD;
 278:Drivers/STM32F1xx_HAL_Driver/Src/stm32f1xx_hal_gpio.c **** 
 279:Drivers/STM32F1xx_HAL_Driver/Src/stm32f1xx_hal_gpio.c ****             /* Reset the corresponding ODR bit */
 280:Drivers/STM32F1xx_HAL_Driver/Src/stm32f1xx_hal_gpio.c ****             GPIOx->BRR = ioposition;
 281:Drivers/STM32F1xx_HAL_Driver/Src/stm32f1xx_hal_gpio.c ****           }
 282:Drivers/STM32F1xx_HAL_Driver/Src/stm32f1xx_hal_gpio.c ****           break;
 283:Drivers/STM32F1xx_HAL_Driver/Src/stm32f1xx_hal_gpio.c **** 
 284:Drivers/STM32F1xx_HAL_Driver/Src/stm32f1xx_hal_gpio.c ****         /* If we are configuring the pin in INPUT analog mode */
 285:Drivers/STM32F1xx_HAL_Driver/Src/stm32f1xx_hal_gpio.c ****         case GPIO_MODE_ANALOG:
 286:Drivers/STM32F1xx_HAL_Driver/Src/stm32f1xx_hal_gpio.c ****           config = GPIO_CR_MODE_INPUT + GPIO_CR_CNF_ANALOG;
 287:Drivers/STM32F1xx_HAL_Driver/Src/stm32f1xx_hal_gpio.c ****           break;
 288:Drivers/STM32F1xx_HAL_Driver/Src/stm32f1xx_hal_gpio.c **** 
 289:Drivers/STM32F1xx_HAL_Driver/Src/stm32f1xx_hal_gpio.c ****         /* Parameters are checked with assert_param */
 290:Drivers/STM32F1xx_HAL_Driver/Src/stm32f1xx_hal_gpio.c ****         default:
 291:Drivers/STM32F1xx_HAL_Driver/Src/stm32f1xx_hal_gpio.c ****           break;
 292:Drivers/STM32F1xx_HAL_Driver/Src/stm32f1xx_hal_gpio.c ****       }
 293:Drivers/STM32F1xx_HAL_Driver/Src/stm32f1xx_hal_gpio.c **** 
 294:Drivers/STM32F1xx_HAL_Driver/Src/stm32f1xx_hal_gpio.c ****       /* Check if the current bit belongs to first half or last half of the pin count number
 295:Drivers/STM32F1xx_HAL_Driver/Src/stm32f1xx_hal_gpio.c ****        in order to address CRH or CRL register*/
 296:Drivers/STM32F1xx_HAL_Driver/Src/stm32f1xx_hal_gpio.c ****       configregister = (iocurrent < GPIO_PIN_8) ? &GPIOx->CRL     : &GPIOx->CRH;
 297:Drivers/STM32F1xx_HAL_Driver/Src/stm32f1xx_hal_gpio.c ****       registeroffset = (iocurrent < GPIO_PIN_8) ? (position << 2U) : ((position - 8U) << 2U);
 298:Drivers/STM32F1xx_HAL_Driver/Src/stm32f1xx_hal_gpio.c **** 
 299:Drivers/STM32F1xx_HAL_Driver/Src/stm32f1xx_hal_gpio.c ****       /* Apply the new configuration of the pin to the register */
 300:Drivers/STM32F1xx_HAL_Driver/Src/stm32f1xx_hal_gpio.c ****       MODIFY_REG((*configregister), ((GPIO_CRL_MODE0 | GPIO_CRL_CNF0) << registeroffset), (config <
 301:Drivers/STM32F1xx_HAL_Driver/Src/stm32f1xx_hal_gpio.c **** 
 302:Drivers/STM32F1xx_HAL_Driver/Src/stm32f1xx_hal_gpio.c ****       /*--------------------- EXTI Mode Configuration ------------------------*/
 303:Drivers/STM32F1xx_HAL_Driver/Src/stm32f1xx_hal_gpio.c ****       /* Configure the External Interrupt or event for the current IO */
 304:Drivers/STM32F1xx_HAL_Driver/Src/stm32f1xx_hal_gpio.c ****       if ((GPIO_Init->Mode & EXTI_MODE) == EXTI_MODE)
 305:Drivers/STM32F1xx_HAL_Driver/Src/stm32f1xx_hal_gpio.c ****       {
 306:Drivers/STM32F1xx_HAL_Driver/Src/stm32f1xx_hal_gpio.c ****         /* Enable AFIO Clock */
 307:Drivers/STM32F1xx_HAL_Driver/Src/stm32f1xx_hal_gpio.c ****         __HAL_RCC_AFIO_CLK_ENABLE();
 308:Drivers/STM32F1xx_HAL_Driver/Src/stm32f1xx_hal_gpio.c ****         temp = AFIO->EXTICR[position >> 2U];
 309:Drivers/STM32F1xx_HAL_Driver/Src/stm32f1xx_hal_gpio.c ****         CLEAR_BIT(temp, (0x0FU) << (4U * (position & 0x03U)));
 310:Drivers/STM32F1xx_HAL_Driver/Src/stm32f1xx_hal_gpio.c ****         SET_BIT(temp, (GPIO_GET_INDEX(GPIOx)) << (4U * (position & 0x03U)));
 131              		.loc 1 310 0 is_stmt 1 discriminator 1
 132 0090 4FF00009 		mov	r9, #0
 133 0094 4E46     		mov	r6, r9
 134 0096 D8E0     		b	.L6
 135              	.L45:
 207:Drivers/STM32F1xx_HAL_Driver/Src/stm32f1xx_hal_gpio.c ****   assert_param(IS_GPIO_MODE(GPIO_Init->Mode));
 136              		.loc 1 207 0 discriminator 11
 137 0098 CF21     		movs	r1, #207
 138 009a 9348     		ldr	r0, .L56+4
 139 009c FFF7FEFF 		bl	assert_failed
 140              	.LVL6:
 141 00a0 F6E7     		b	.L5
 142              	.LVL7:
 143              	.L54:
 224:Drivers/STM32F1xx_HAL_Driver/Src/stm32f1xx_hal_gpio.c ****       {
 144              		.loc 1 224 0
 145 00a2 002B     		cmp	r3, #0
ARM GAS  /var/folders/xw/ncjdtmf133b976k652zsj0500000gn/T//cc8MC9bm.s 			page 9


 146 00a4 5ED0     		beq	.L14
 147 00a6 012B     		cmp	r3, #1
 148 00a8 05D1     		bne	.L16
 229:Drivers/STM32F1xx_HAL_Driver/Src/stm32f1xx_hal_gpio.c ****           config = GPIO_Init->Speed + GPIO_CR_CNF_GP_OUTPUT_PP;
 149              		.loc 1 229 0
 150 00aa FB68     		ldr	r3, [r7, #12]
 151 00ac 013B     		subs	r3, r3, #1
 152 00ae 022B     		cmp	r3, #2
 153 00b0 65D8     		bhi	.L46
 154              	.L19:
 230:Drivers/STM32F1xx_HAL_Driver/Src/stm32f1xx_hal_gpio.c ****           break;
 155              		.loc 1 230 0
 156 00b2 D7F80C90 		ldr	r9, [r7, #12]
 157              	.LVL8:
 158              	.L16:
 296:Drivers/STM32F1xx_HAL_Driver/Src/stm32f1xx_hal_gpio.c ****       registeroffset = (iocurrent < GPIO_PIN_8) ? (position << 2U) : ((position - 8U) << 2U);
 159              		.loc 1 296 0
 160 00b6 FF2C     		cmp	r4, #255
 161 00b8 00F29680 		bhi	.L25
 296:Drivers/STM32F1xx_HAL_Driver/Src/stm32f1xx_hal_gpio.c ****       registeroffset = (iocurrent < GPIO_PIN_8) ? (position << 2U) : ((position - 8U) << 2U);
 162              		.loc 1 296 0 is_stmt 0 discriminator 1
 163 00bc 4046     		mov	r0, r8
 164              	.L26:
 165              	.LVL9:
 297:Drivers/STM32F1xx_HAL_Driver/Src/stm32f1xx_hal_gpio.c **** 
 166              		.loc 1 297 0 is_stmt 1 discriminator 4
 167 00be FF2C     		cmp	r4, #255
 168 00c0 00F29580 		bhi	.L27
 297:Drivers/STM32F1xx_HAL_Driver/Src/stm32f1xx_hal_gpio.c **** 
 169              		.loc 1 297 0 is_stmt 0 discriminator 1
 170 00c4 B200     		lsls	r2, r6, #2
 171              	.L28:
 172              	.LVL10:
 300:Drivers/STM32F1xx_HAL_Driver/Src/stm32f1xx_hal_gpio.c **** 
 173              		.loc 1 300 0 is_stmt 1 discriminator 4
 174 00c6 0368     		ldr	r3, [r0]
 175 00c8 0F21     		movs	r1, #15
 176 00ca 9140     		lsls	r1, r1, r2
 177 00cc 23EA0103 		bic	r3, r3, r1
 178 00d0 09FA02F2 		lsl	r2, r9, r2
 179              	.LVL11:
 180 00d4 1343     		orrs	r3, r3, r2
 181 00d6 0360     		str	r3, [r0]
 304:Drivers/STM32F1xx_HAL_Driver/Src/stm32f1xx_hal_gpio.c ****       {
 182              		.loc 1 304 0 discriminator 4
 183 00d8 7B68     		ldr	r3, [r7, #4]
 184 00da 13F0805F 		tst	r3, #268435456
 185 00de 00F0B380 		beq	.L7
 186              	.LBB2:
 307:Drivers/STM32F1xx_HAL_Driver/Src/stm32f1xx_hal_gpio.c ****         temp = AFIO->EXTICR[position >> 2U];
 187              		.loc 1 307 0
 188 00e2 834B     		ldr	r3, .L56+12
 189 00e4 9A69     		ldr	r2, [r3, #24]
 190 00e6 42F00102 		orr	r2, r2, #1
 191 00ea 9A61     		str	r2, [r3, #24]
 192 00ec 9B69     		ldr	r3, [r3, #24]
 193 00ee 03F00103 		and	r3, r3, #1
ARM GAS  /var/folders/xw/ncjdtmf133b976k652zsj0500000gn/T//cc8MC9bm.s 			page 10


 194 00f2 0193     		str	r3, [sp, #4]
 195 00f4 019B     		ldr	r3, [sp, #4]
 196              	.LBE2:
 308:Drivers/STM32F1xx_HAL_Driver/Src/stm32f1xx_hal_gpio.c ****         CLEAR_BIT(temp, (0x0FU) << (4U * (position & 0x03U)));
 197              		.loc 1 308 0
 198 00f6 B208     		lsrs	r2, r6, #2
 199 00f8 911C     		adds	r1, r2, #2
 200 00fa 7E4B     		ldr	r3, .L56+16
 201 00fc 53F82100 		ldr	r0, [r3, r1, lsl #2]
 202              	.LVL12:
 309:Drivers/STM32F1xx_HAL_Driver/Src/stm32f1xx_hal_gpio.c ****         SET_BIT(temp, (GPIO_GET_INDEX(GPIOx)) << (4U * (position & 0x03U)));
 203              		.loc 1 309 0
 204 0100 06F00303 		and	r3, r6, #3
 205 0104 9900     		lsls	r1, r3, #2
 206 0106 0F23     		movs	r3, #15
 207 0108 8B40     		lsls	r3, r3, r1
 208 010a 20EA0300 		bic	r0, r0, r3
 209              	.LVL13:
 210              		.loc 1 310 0
 211 010e 754B     		ldr	r3, .L56
 212 0110 9845     		cmp	r8, r3
 213 0112 72D0     		beq	.L40
 214              		.loc 1 310 0 is_stmt 0 discriminator 1
 215 0114 03F58063 		add	r3, r3, #1024
 216 0118 9845     		cmp	r8, r3
 217 011a 00F0CD80 		beq	.L41
 218              		.loc 1 310 0 discriminator 3
 219 011e 03F58063 		add	r3, r3, #1024
 220 0122 9845     		cmp	r8, r3
 221 0124 00F0CA80 		beq	.L42
 222              		.loc 1 310 0 discriminator 5
 223 0128 03F58063 		add	r3, r3, #1024
 224 012c 9845     		cmp	r8, r3
 225 012e 62D0     		beq	.L47
 226              		.loc 1 310 0
 227 0130 0423     		movs	r3, #4
 228 0132 63E0     		b	.L29
 229              	.LVL14:
 230              	.L11:
 224:Drivers/STM32F1xx_HAL_Driver/Src/stm32f1xx_hal_gpio.c ****       {
 231              		.loc 1 224 0 is_stmt 1
 232 0134 704A     		ldr	r2, .L56+20
 233 0136 9342     		cmp	r3, r2
 234 0138 14D0     		beq	.L14
 235 013a 0BD9     		bls	.L48
 236 013c 6F4A     		ldr	r2, .L56+24
 237 013e 9342     		cmp	r3, r2
 238 0140 10D0     		beq	.L14
 239 0142 02F58032 		add	r2, r2, #65536
 240 0146 9342     		cmp	r3, r2
 241 0148 0CD0     		beq	.L14
 242 014a A2F58012 		sub	r2, r2, #1048576
 243 014e 9342     		cmp	r3, r2
 244 0150 B1D1     		bne	.L16
 245 0152 07E0     		b	.L14
 246              	.L48:
 247 0154 A2F58012 		sub	r2, r2, #1048576
ARM GAS  /var/folders/xw/ncjdtmf133b976k652zsj0500000gn/T//cc8MC9bm.s 			page 11


 248 0158 9342     		cmp	r3, r2
 249 015a 03D0     		beq	.L14
 250 015c 02F58032 		add	r2, r2, #65536
 251 0160 9342     		cmp	r3, r2
 252 0162 A8D1     		bne	.L16
 253              	.L14:
 263:Drivers/STM32F1xx_HAL_Driver/Src/stm32f1xx_hal_gpio.c ****           if (GPIO_Init->Pull == GPIO_NOPULL)
 254              		.loc 1 263 0
 255 0164 BB68     		ldr	r3, [r7, #8]
 256 0166 022B     		cmp	r3, #2
 257 0168 2DD8     		bhi	.L49
 258              	.L23:
 264:Drivers/STM32F1xx_HAL_Driver/Src/stm32f1xx_hal_gpio.c ****           {
 259              		.loc 1 264 0
 260 016a BB68     		ldr	r3, [r7, #8]
 261 016c 002B     		cmp	r3, #0
 262 016e 38D0     		beq	.L39
 268:Drivers/STM32F1xx_HAL_Driver/Src/stm32f1xx_hal_gpio.c ****           {
 263              		.loc 1 268 0
 264 0170 012B     		cmp	r3, #1
 265 0172 2ED0     		beq	.L50
 266              	.LVL15:
 280:Drivers/STM32F1xx_HAL_Driver/Src/stm32f1xx_hal_gpio.c ****           }
 267              		.loc 1 280 0
 268 0174 C8F81450 		str	r5, [r8, #20]
 277:Drivers/STM32F1xx_HAL_Driver/Src/stm32f1xx_hal_gpio.c **** 
 269              		.loc 1 277 0
 270 0178 4FF00809 		mov	r9, #8
 271 017c 9BE7     		b	.L16
 272              	.LVL16:
 273              	.L46:
 229:Drivers/STM32F1xx_HAL_Driver/Src/stm32f1xx_hal_gpio.c ****           config = GPIO_Init->Speed + GPIO_CR_CNF_GP_OUTPUT_PP;
 274              		.loc 1 229 0 discriminator 1
 275 017e E521     		movs	r1, #229
 276 0180 5948     		ldr	r0, .L56+4
 277 0182 FFF7FEFF 		bl	assert_failed
 278              	.LVL17:
 279 0186 94E7     		b	.L19
 280              	.L55:
 236:Drivers/STM32F1xx_HAL_Driver/Src/stm32f1xx_hal_gpio.c ****           config = GPIO_Init->Speed + GPIO_CR_CNF_GP_OUTPUT_OD;
 281              		.loc 1 236 0 discriminator 1
 282 0188 EC21     		movs	r1, #236
 283 018a 5748     		ldr	r0, .L56+4
 284 018c FFF7FEFF 		bl	assert_failed
 285              	.LVL18:
 286 0190 8EE0     		b	.L20
 287              	.L12:
 243:Drivers/STM32F1xx_HAL_Driver/Src/stm32f1xx_hal_gpio.c ****           config = GPIO_Init->Speed + GPIO_CR_CNF_AF_OUTPUT_PP;
 288              		.loc 1 243 0
 289 0192 FB68     		ldr	r3, [r7, #12]
 290 0194 013B     		subs	r3, r3, #1
 291 0196 022B     		cmp	r3, #2
 292 0198 03D8     		bhi	.L51
 293              	.L21:
 244:Drivers/STM32F1xx_HAL_Driver/Src/stm32f1xx_hal_gpio.c ****           break;
 294              		.loc 1 244 0
 295 019a FB68     		ldr	r3, [r7, #12]
ARM GAS  /var/folders/xw/ncjdtmf133b976k652zsj0500000gn/T//cc8MC9bm.s 			page 12


 296 019c 03F10809 		add	r9, r3, #8
 297              	.LVL19:
 245:Drivers/STM32F1xx_HAL_Driver/Src/stm32f1xx_hal_gpio.c **** 
 298              		.loc 1 245 0
 299 01a0 89E7     		b	.L16
 300              	.L51:
 243:Drivers/STM32F1xx_HAL_Driver/Src/stm32f1xx_hal_gpio.c ****           config = GPIO_Init->Speed + GPIO_CR_CNF_AF_OUTPUT_PP;
 301              		.loc 1 243 0 discriminator 1
 302 01a2 F321     		movs	r1, #243
 303 01a4 5048     		ldr	r0, .L56+4
 304 01a6 FFF7FEFF 		bl	assert_failed
 305              	.LVL20:
 306 01aa F6E7     		b	.L21
 307              	.L10:
 250:Drivers/STM32F1xx_HAL_Driver/Src/stm32f1xx_hal_gpio.c ****           config = GPIO_Init->Speed + GPIO_CR_CNF_AF_OUTPUT_OD;
 308              		.loc 1 250 0
 309 01ac FB68     		ldr	r3, [r7, #12]
 310 01ae 013B     		subs	r3, r3, #1
 311 01b0 022B     		cmp	r3, #2
 312 01b2 03D8     		bhi	.L52
 313              	.L22:
 251:Drivers/STM32F1xx_HAL_Driver/Src/stm32f1xx_hal_gpio.c ****           break;
 314              		.loc 1 251 0
 315 01b4 FB68     		ldr	r3, [r7, #12]
 316 01b6 03F10C09 		add	r9, r3, #12
 317              	.LVL21:
 252:Drivers/STM32F1xx_HAL_Driver/Src/stm32f1xx_hal_gpio.c **** 
 318              		.loc 1 252 0
 319 01ba 7CE7     		b	.L16
 320              	.L52:
 250:Drivers/STM32F1xx_HAL_Driver/Src/stm32f1xx_hal_gpio.c ****           config = GPIO_Init->Speed + GPIO_CR_CNF_AF_OUTPUT_OD;
 321              		.loc 1 250 0 discriminator 1
 322 01bc FA21     		movs	r1, #250
 323 01be 4A48     		ldr	r0, .L56+4
 324 01c0 FFF7FEFF 		bl	assert_failed
 325              	.LVL22:
 326 01c4 F6E7     		b	.L22
 327              	.L49:
 263:Drivers/STM32F1xx_HAL_Driver/Src/stm32f1xx_hal_gpio.c ****           if (GPIO_Init->Pull == GPIO_NOPULL)
 328              		.loc 1 263 0 discriminator 1
 329 01c6 40F20711 		movw	r1, #263
 330 01ca 4748     		ldr	r0, .L56+4
 331 01cc FFF7FEFF 		bl	assert_failed
 332              	.LVL23:
 333 01d0 CBE7     		b	.L23
 334              	.L50:
 335              	.LVL24:
 273:Drivers/STM32F1xx_HAL_Driver/Src/stm32f1xx_hal_gpio.c ****           }
 336              		.loc 1 273 0
 337 01d2 C8F81050 		str	r5, [r8, #16]
 270:Drivers/STM32F1xx_HAL_Driver/Src/stm32f1xx_hal_gpio.c **** 
 338              		.loc 1 270 0
 339 01d6 4FF00809 		mov	r9, #8
 340 01da 6CE7     		b	.L16
 341              	.LVL25:
 342              	.L38:
 286:Drivers/STM32F1xx_HAL_Driver/Src/stm32f1xx_hal_gpio.c ****           break;
ARM GAS  /var/folders/xw/ncjdtmf133b976k652zsj0500000gn/T//cc8MC9bm.s 			page 13


 343              		.loc 1 286 0
 344 01dc 4FF00009 		mov	r9, #0
 345              	.LVL26:
 346 01e0 69E7     		b	.L16
 347              	.LVL27:
 348              	.L39:
 266:Drivers/STM32F1xx_HAL_Driver/Src/stm32f1xx_hal_gpio.c ****           }
 349              		.loc 1 266 0
 350 01e2 4FF00409 		mov	r9, #4
 351              	.LVL28:
 352 01e6 66E7     		b	.L16
 353              	.LVL29:
 354              	.L25:
 296:Drivers/STM32F1xx_HAL_Driver/Src/stm32f1xx_hal_gpio.c ****       registeroffset = (iocurrent < GPIO_PIN_8) ? (position << 2U) : ((position - 8U) << 2U);
 355              		.loc 1 296 0 discriminator 2
 356 01e8 08F10400 		add	r0, r8, #4
 357 01ec 67E7     		b	.L26
 358              	.LVL30:
 359              	.L27:
 297:Drivers/STM32F1xx_HAL_Driver/Src/stm32f1xx_hal_gpio.c **** 
 360              		.loc 1 297 0 discriminator 2
 361 01ee A6F10802 		sub	r2, r6, #8
 362 01f2 9200     		lsls	r2, r2, #2
 363 01f4 67E7     		b	.L28
 364              	.LVL31:
 365              	.L47:
 366              		.loc 1 310 0
 367 01f6 0323     		movs	r3, #3
 368 01f8 00E0     		b	.L29
 369              	.L40:
 370 01fa 0023     		movs	r3, #0
 371              	.L29:
 372              		.loc 1 310 0 is_stmt 0 discriminator 16
 373 01fc 8B40     		lsls	r3, r3, r1
 374 01fe 0343     		orrs	r3, r3, r0
 375              	.LVL32:
 311:Drivers/STM32F1xx_HAL_Driver/Src/stm32f1xx_hal_gpio.c ****         AFIO->EXTICR[position >> 2U] = temp;
 376              		.loc 1 311 0 is_stmt 1 discriminator 16
 377 0200 0232     		adds	r2, r2, #2
 378 0202 3C49     		ldr	r1, .L56+16
 379 0204 41F82230 		str	r3, [r1, r2, lsl #2]
 312:Drivers/STM32F1xx_HAL_Driver/Src/stm32f1xx_hal_gpio.c **** 
 313:Drivers/STM32F1xx_HAL_Driver/Src/stm32f1xx_hal_gpio.c **** 
 314:Drivers/STM32F1xx_HAL_Driver/Src/stm32f1xx_hal_gpio.c ****         /* Configure the interrupt mask */
 315:Drivers/STM32F1xx_HAL_Driver/Src/stm32f1xx_hal_gpio.c ****         if ((GPIO_Init->Mode & GPIO_MODE_IT) == GPIO_MODE_IT)
 380              		.loc 1 315 0 discriminator 16
 381 0208 7B68     		ldr	r3, [r7, #4]
 382              	.LVL33:
 383 020a 13F4803F 		tst	r3, #65536
 384 020e 57D0     		beq	.L30
 316:Drivers/STM32F1xx_HAL_Driver/Src/stm32f1xx_hal_gpio.c ****         {
 317:Drivers/STM32F1xx_HAL_Driver/Src/stm32f1xx_hal_gpio.c ****           SET_BIT(EXTI->IMR, iocurrent);
 385              		.loc 1 317 0
 386 0210 3B4A     		ldr	r2, .L56+28
 387              	.LVL34:
 388 0212 1368     		ldr	r3, [r2]
 389 0214 2343     		orrs	r3, r3, r4
ARM GAS  /var/folders/xw/ncjdtmf133b976k652zsj0500000gn/T//cc8MC9bm.s 			page 14


 390 0216 1360     		str	r3, [r2]
 391              	.LVL35:
 392              	.L31:
 318:Drivers/STM32F1xx_HAL_Driver/Src/stm32f1xx_hal_gpio.c ****         }
 319:Drivers/STM32F1xx_HAL_Driver/Src/stm32f1xx_hal_gpio.c ****         else
 320:Drivers/STM32F1xx_HAL_Driver/Src/stm32f1xx_hal_gpio.c ****         {
 321:Drivers/STM32F1xx_HAL_Driver/Src/stm32f1xx_hal_gpio.c ****           CLEAR_BIT(EXTI->IMR, iocurrent);
 322:Drivers/STM32F1xx_HAL_Driver/Src/stm32f1xx_hal_gpio.c ****         }
 323:Drivers/STM32F1xx_HAL_Driver/Src/stm32f1xx_hal_gpio.c **** 
 324:Drivers/STM32F1xx_HAL_Driver/Src/stm32f1xx_hal_gpio.c ****         /* Configure the event mask */
 325:Drivers/STM32F1xx_HAL_Driver/Src/stm32f1xx_hal_gpio.c ****         if ((GPIO_Init->Mode & GPIO_MODE_EVT) == GPIO_MODE_EVT)
 393              		.loc 1 325 0
 394 0218 7B68     		ldr	r3, [r7, #4]
 395 021a 13F4003F 		tst	r3, #131072
 396 021e 55D0     		beq	.L32
 326:Drivers/STM32F1xx_HAL_Driver/Src/stm32f1xx_hal_gpio.c ****         {
 327:Drivers/STM32F1xx_HAL_Driver/Src/stm32f1xx_hal_gpio.c ****           SET_BIT(EXTI->EMR, iocurrent);
 397              		.loc 1 327 0
 398 0220 374A     		ldr	r2, .L56+28
 399 0222 5368     		ldr	r3, [r2, #4]
 400 0224 2343     		orrs	r3, r3, r4
 401 0226 5360     		str	r3, [r2, #4]
 402              	.L33:
 328:Drivers/STM32F1xx_HAL_Driver/Src/stm32f1xx_hal_gpio.c ****         }
 329:Drivers/STM32F1xx_HAL_Driver/Src/stm32f1xx_hal_gpio.c ****         else
 330:Drivers/STM32F1xx_HAL_Driver/Src/stm32f1xx_hal_gpio.c ****         {
 331:Drivers/STM32F1xx_HAL_Driver/Src/stm32f1xx_hal_gpio.c ****           CLEAR_BIT(EXTI->EMR, iocurrent);
 332:Drivers/STM32F1xx_HAL_Driver/Src/stm32f1xx_hal_gpio.c ****         }
 333:Drivers/STM32F1xx_HAL_Driver/Src/stm32f1xx_hal_gpio.c **** 
 334:Drivers/STM32F1xx_HAL_Driver/Src/stm32f1xx_hal_gpio.c ****         /* Enable or disable the rising trigger */
 335:Drivers/STM32F1xx_HAL_Driver/Src/stm32f1xx_hal_gpio.c ****         if ((GPIO_Init->Mode & RISING_EDGE) == RISING_EDGE)
 403              		.loc 1 335 0
 404 0228 7B68     		ldr	r3, [r7, #4]
 405 022a 13F4801F 		tst	r3, #1048576
 406 022e 53D0     		beq	.L34
 336:Drivers/STM32F1xx_HAL_Driver/Src/stm32f1xx_hal_gpio.c ****         {
 337:Drivers/STM32F1xx_HAL_Driver/Src/stm32f1xx_hal_gpio.c ****           SET_BIT(EXTI->RTSR, iocurrent);
 407              		.loc 1 337 0
 408 0230 334A     		ldr	r2, .L56+28
 409 0232 9368     		ldr	r3, [r2, #8]
 410 0234 2343     		orrs	r3, r3, r4
 411 0236 9360     		str	r3, [r2, #8]
 412              	.L35:
 338:Drivers/STM32F1xx_HAL_Driver/Src/stm32f1xx_hal_gpio.c ****         }
 339:Drivers/STM32F1xx_HAL_Driver/Src/stm32f1xx_hal_gpio.c ****         else
 340:Drivers/STM32F1xx_HAL_Driver/Src/stm32f1xx_hal_gpio.c ****         {
 341:Drivers/STM32F1xx_HAL_Driver/Src/stm32f1xx_hal_gpio.c ****           CLEAR_BIT(EXTI->RTSR, iocurrent);
 342:Drivers/STM32F1xx_HAL_Driver/Src/stm32f1xx_hal_gpio.c ****         }
 343:Drivers/STM32F1xx_HAL_Driver/Src/stm32f1xx_hal_gpio.c **** 
 344:Drivers/STM32F1xx_HAL_Driver/Src/stm32f1xx_hal_gpio.c ****         /* Enable or disable the falling trigger */
 345:Drivers/STM32F1xx_HAL_Driver/Src/stm32f1xx_hal_gpio.c ****         if ((GPIO_Init->Mode & FALLING_EDGE) == FALLING_EDGE)
 413              		.loc 1 345 0
 414 0238 7B68     		ldr	r3, [r7, #4]
 415 023a 13F4001F 		tst	r3, #2097152
 416 023e 61D0     		beq	.L36
 346:Drivers/STM32F1xx_HAL_Driver/Src/stm32f1xx_hal_gpio.c ****         {
 347:Drivers/STM32F1xx_HAL_Driver/Src/stm32f1xx_hal_gpio.c ****           SET_BIT(EXTI->FTSR, iocurrent);
ARM GAS  /var/folders/xw/ncjdtmf133b976k652zsj0500000gn/T//cc8MC9bm.s 			page 15


 417              		.loc 1 347 0
 418 0240 2F4A     		ldr	r2, .L56+28
 419 0242 D368     		ldr	r3, [r2, #12]
 420 0244 1C43     		orrs	r4, r4, r3
 421              	.LVL36:
 422 0246 D460     		str	r4, [r2, #12]
 423              	.L7:
 210:Drivers/STM32F1xx_HAL_Driver/Src/stm32f1xx_hal_gpio.c ****   {
 424              		.loc 1 210 0 discriminator 2
 425 0248 0136     		adds	r6, r6, #1
 426              	.LVL37:
 427              	.L6:
 210:Drivers/STM32F1xx_HAL_Driver/Src/stm32f1xx_hal_gpio.c ****   {
 428              		.loc 1 210 0 is_stmt 0 discriminator 1
 429 024a 0F2E     		cmp	r6, #15
 430 024c 60D8     		bhi	.L53
 213:Drivers/STM32F1xx_HAL_Driver/Src/stm32f1xx_hal_gpio.c **** 
 431              		.loc 1 213 0 is_stmt 1
 432 024e 0125     		movs	r5, #1
 433 0250 B540     		lsls	r5, r5, r6
 434              	.LVL38:
 216:Drivers/STM32F1xx_HAL_Driver/Src/stm32f1xx_hal_gpio.c **** 
 435              		.loc 1 216 0
 436 0252 3C68     		ldr	r4, [r7]
 437 0254 2C40     		ands	r4, r4, r5
 438              	.LVL39:
 218:Drivers/STM32F1xx_HAL_Driver/Src/stm32f1xx_hal_gpio.c ****     {
 439              		.loc 1 218 0
 440 0256 A542     		cmp	r5, r4
 441 0258 F6D1     		bne	.L7
 221:Drivers/STM32F1xx_HAL_Driver/Src/stm32f1xx_hal_gpio.c **** 
 442              		.loc 1 221 0
 443 025a 224B     		ldr	r3, .L56
 444 025c 9845     		cmp	r8, r3
 445 025e 13D0     		beq	.L8
 221:Drivers/STM32F1xx_HAL_Driver/Src/stm32f1xx_hal_gpio.c **** 
 446              		.loc 1 221 0 is_stmt 0 discriminator 1
 447 0260 03F58063 		add	r3, r3, #1024
 448 0264 9845     		cmp	r8, r3
 449 0266 0FD0     		beq	.L8
 221:Drivers/STM32F1xx_HAL_Driver/Src/stm32f1xx_hal_gpio.c **** 
 450              		.loc 1 221 0 discriminator 2
 451 0268 03F58063 		add	r3, r3, #1024
 452 026c 9845     		cmp	r8, r3
 453 026e 0BD0     		beq	.L8
 221:Drivers/STM32F1xx_HAL_Driver/Src/stm32f1xx_hal_gpio.c **** 
 454              		.loc 1 221 0 discriminator 3
 455 0270 03F58063 		add	r3, r3, #1024
 456 0274 9845     		cmp	r8, r3
 457 0276 07D0     		beq	.L8
 221:Drivers/STM32F1xx_HAL_Driver/Src/stm32f1xx_hal_gpio.c **** 
 458              		.loc 1 221 0 discriminator 4
 459 0278 03F58063 		add	r3, r3, #1024
 460 027c 9845     		cmp	r8, r3
 461 027e 03D0     		beq	.L8
 221:Drivers/STM32F1xx_HAL_Driver/Src/stm32f1xx_hal_gpio.c **** 
 462              		.loc 1 221 0 discriminator 5
ARM GAS  /var/folders/xw/ncjdtmf133b976k652zsj0500000gn/T//cc8MC9bm.s 			page 16


 463 0280 DD21     		movs	r1, #221
 464 0282 1948     		ldr	r0, .L56+4
 465 0284 FFF7FEFF 		bl	assert_failed
 466              	.LVL40:
 467              	.L8:
 224:Drivers/STM32F1xx_HAL_Driver/Src/stm32f1xx_hal_gpio.c ****       {
 468              		.loc 1 224 0 is_stmt 1
 469 0288 7B68     		ldr	r3, [r7, #4]
 470 028a 122B     		cmp	r3, #18
 471 028c 8ED0     		beq	.L10
 472 028e 3FF651AF 		bhi	.L11
 473 0292 022B     		cmp	r3, #2
 474 0294 3FF47DAF 		beq	.L12
 475 0298 7FF603AF 		bls	.L54
 476 029c 032B     		cmp	r3, #3
 477 029e 9DD0     		beq	.L38
 478 02a0 112B     		cmp	r3, #17
 479 02a2 7FF408AF 		bne	.L16
 236:Drivers/STM32F1xx_HAL_Driver/Src/stm32f1xx_hal_gpio.c ****           config = GPIO_Init->Speed + GPIO_CR_CNF_GP_OUTPUT_OD;
 480              		.loc 1 236 0
 481 02a6 FB68     		ldr	r3, [r7, #12]
 482 02a8 013B     		subs	r3, r3, #1
 483 02aa 022B     		cmp	r3, #2
 484 02ac 3FF66CAF 		bhi	.L55
 485              	.L20:
 237:Drivers/STM32F1xx_HAL_Driver/Src/stm32f1xx_hal_gpio.c ****           break;
 486              		.loc 1 237 0
 487 02b0 FB68     		ldr	r3, [r7, #12]
 488 02b2 03F10409 		add	r9, r3, #4
 489              	.LVL41:
 238:Drivers/STM32F1xx_HAL_Driver/Src/stm32f1xx_hal_gpio.c **** 
 490              		.loc 1 238 0
 491 02b6 FEE6     		b	.L16
 492              	.LVL42:
 493              	.L41:
 310:Drivers/STM32F1xx_HAL_Driver/Src/stm32f1xx_hal_gpio.c ****         AFIO->EXTICR[position >> 2U] = temp;
 494              		.loc 1 310 0
 495 02b8 0123     		movs	r3, #1
 496 02ba 9FE7     		b	.L29
 497              	.L42:
 498 02bc 0223     		movs	r3, #2
 499 02be 9DE7     		b	.L29
 500              	.LVL43:
 501              	.L30:
 321:Drivers/STM32F1xx_HAL_Driver/Src/stm32f1xx_hal_gpio.c ****         }
 502              		.loc 1 321 0
 503 02c0 0F4A     		ldr	r2, .L56+28
 504              	.LVL44:
 505 02c2 1368     		ldr	r3, [r2]
 506 02c4 23EA0403 		bic	r3, r3, r4
 507 02c8 1360     		str	r3, [r2]
 508              	.LVL45:
 509 02ca A5E7     		b	.L31
 510              	.L32:
 331:Drivers/STM32F1xx_HAL_Driver/Src/stm32f1xx_hal_gpio.c ****         }
 511              		.loc 1 331 0
 512 02cc 0C4A     		ldr	r2, .L56+28
ARM GAS  /var/folders/xw/ncjdtmf133b976k652zsj0500000gn/T//cc8MC9bm.s 			page 17


 513 02ce 5368     		ldr	r3, [r2, #4]
 514 02d0 23EA0403 		bic	r3, r3, r4
 515 02d4 5360     		str	r3, [r2, #4]
 516 02d6 A7E7     		b	.L33
 517              	.L34:
 341:Drivers/STM32F1xx_HAL_Driver/Src/stm32f1xx_hal_gpio.c ****         }
 518              		.loc 1 341 0
 519 02d8 094A     		ldr	r2, .L56+28
 520 02da 9368     		ldr	r3, [r2, #8]
 521 02dc 23EA0403 		bic	r3, r3, r4
 522 02e0 9360     		str	r3, [r2, #8]
 523 02e2 A9E7     		b	.L35
 524              	.L57:
 525              		.align	2
 526              	.L56:
 527 02e4 00080140 		.word	1073809408
 528 02e8 00000000 		.word	.LC0
 529 02ec 00001110 		.word	269549568
 530 02f0 00100240 		.word	1073876992
 531 02f4 00000140 		.word	1073807360
 532 02f8 00002110 		.word	270598144
 533 02fc 00003110 		.word	271646720
 534 0300 00040140 		.word	1073808384
 535              	.L36:
 348:Drivers/STM32F1xx_HAL_Driver/Src/stm32f1xx_hal_gpio.c ****         }
 349:Drivers/STM32F1xx_HAL_Driver/Src/stm32f1xx_hal_gpio.c ****         else
 350:Drivers/STM32F1xx_HAL_Driver/Src/stm32f1xx_hal_gpio.c ****         {
 351:Drivers/STM32F1xx_HAL_Driver/Src/stm32f1xx_hal_gpio.c ****           CLEAR_BIT(EXTI->FTSR, iocurrent);
 536              		.loc 1 351 0
 537 0304 044A     		ldr	r2, .L58
 538 0306 D368     		ldr	r3, [r2, #12]
 539 0308 23EA0404 		bic	r4, r3, r4
 540              	.LVL46:
 541 030c D460     		str	r4, [r2, #12]
 542 030e 9BE7     		b	.L7
 543              	.LVL47:
 544              	.L53:
 352:Drivers/STM32F1xx_HAL_Driver/Src/stm32f1xx_hal_gpio.c ****         }
 353:Drivers/STM32F1xx_HAL_Driver/Src/stm32f1xx_hal_gpio.c ****       }
 354:Drivers/STM32F1xx_HAL_Driver/Src/stm32f1xx_hal_gpio.c ****     }
 355:Drivers/STM32F1xx_HAL_Driver/Src/stm32f1xx_hal_gpio.c ****   }
 356:Drivers/STM32F1xx_HAL_Driver/Src/stm32f1xx_hal_gpio.c **** }
 545              		.loc 1 356 0
 546 0310 03B0     		add	sp, sp, #12
 547              	.LCFI2:
 548              		.cfi_def_cfa_offset 28
 549              		@ sp needed
 550 0312 BDE8F083 		pop	{r4, r5, r6, r7, r8, r9, pc}
 551              	.LVL48:
 552              	.L59:
 553 0316 00BF     		.align	2
 554              	.L58:
 555 0318 00040140 		.word	1073808384
 556              		.cfi_endproc
 557              	.LFE66:
 559              		.section	.text.HAL_GPIO_DeInit,"ax",%progbits
 560              		.align	1
ARM GAS  /var/folders/xw/ncjdtmf133b976k652zsj0500000gn/T//cc8MC9bm.s 			page 18


 561              		.global	HAL_GPIO_DeInit
 562              		.syntax unified
 563              		.thumb
 564              		.thumb_func
 565              		.fpu softvfp
 567              	HAL_GPIO_DeInit:
 568              	.LFB67:
 357:Drivers/STM32F1xx_HAL_Driver/Src/stm32f1xx_hal_gpio.c **** 
 358:Drivers/STM32F1xx_HAL_Driver/Src/stm32f1xx_hal_gpio.c **** /**
 359:Drivers/STM32F1xx_HAL_Driver/Src/stm32f1xx_hal_gpio.c ****   * @brief  De-initializes the GPIOx peripheral registers to their default reset values.
 360:Drivers/STM32F1xx_HAL_Driver/Src/stm32f1xx_hal_gpio.c ****   * @param  GPIOx: where x can be (A..G depending on device used) to select the GPIO peripheral
 361:Drivers/STM32F1xx_HAL_Driver/Src/stm32f1xx_hal_gpio.c ****   * @param  GPIO_Pin: specifies the port bit to be written.
 362:Drivers/STM32F1xx_HAL_Driver/Src/stm32f1xx_hal_gpio.c ****   *         This parameter can be one of GPIO_PIN_x where x can be (0..15).
 363:Drivers/STM32F1xx_HAL_Driver/Src/stm32f1xx_hal_gpio.c ****   * @retval None
 364:Drivers/STM32F1xx_HAL_Driver/Src/stm32f1xx_hal_gpio.c ****   */
 365:Drivers/STM32F1xx_HAL_Driver/Src/stm32f1xx_hal_gpio.c **** void HAL_GPIO_DeInit(GPIO_TypeDef  *GPIOx, uint32_t GPIO_Pin)
 366:Drivers/STM32F1xx_HAL_Driver/Src/stm32f1xx_hal_gpio.c **** {
 569              		.loc 1 366 0
 570              		.cfi_startproc
 571              		@ args = 0, pretend = 0, frame = 0
 572              		@ frame_needed = 0, uses_anonymous_args = 0
 573              	.LVL49:
 574 0000 F8B5     		push	{r3, r4, r5, r6, r7, lr}
 575              	.LCFI3:
 576              		.cfi_def_cfa_offset 24
 577              		.cfi_offset 3, -24
 578              		.cfi_offset 4, -20
 579              		.cfi_offset 5, -16
 580              		.cfi_offset 6, -12
 581              		.cfi_offset 7, -8
 582              		.cfi_offset 14, -4
 583 0002 0546     		mov	r5, r0
 584 0004 0C46     		mov	r4, r1
 585              	.LVL50:
 367:Drivers/STM32F1xx_HAL_Driver/Src/stm32f1xx_hal_gpio.c ****   uint32_t position = 0x00U;
 368:Drivers/STM32F1xx_HAL_Driver/Src/stm32f1xx_hal_gpio.c ****   uint32_t iocurrent = 0x00U;
 369:Drivers/STM32F1xx_HAL_Driver/Src/stm32f1xx_hal_gpio.c ****   uint32_t tmp = 0x00U;
 370:Drivers/STM32F1xx_HAL_Driver/Src/stm32f1xx_hal_gpio.c ****   __IO uint32_t *configregister; /* Store the address of CRL or CRH register based on pin number */
 371:Drivers/STM32F1xx_HAL_Driver/Src/stm32f1xx_hal_gpio.c ****   uint32_t registeroffset = 0U;
 372:Drivers/STM32F1xx_HAL_Driver/Src/stm32f1xx_hal_gpio.c **** 
 373:Drivers/STM32F1xx_HAL_Driver/Src/stm32f1xx_hal_gpio.c ****   /* Check the parameters */
 374:Drivers/STM32F1xx_HAL_Driver/Src/stm32f1xx_hal_gpio.c ****   assert_param(IS_GPIO_ALL_INSTANCE(GPIOx));
 586              		.loc 1 374 0
 587 0006 444B     		ldr	r3, .L80
 588 0008 9842     		cmp	r0, r3
 589 000a 14D0     		beq	.L61
 590              		.loc 1 374 0 is_stmt 0 discriminator 1
 591 000c 03F58063 		add	r3, r3, #1024
 592 0010 9842     		cmp	r0, r3
 593 0012 10D0     		beq	.L61
 594              		.loc 1 374 0 discriminator 2
 595 0014 03F58063 		add	r3, r3, #1024
 596 0018 9842     		cmp	r0, r3
 597 001a 0CD0     		beq	.L61
 598              		.loc 1 374 0 discriminator 3
 599 001c 03F58063 		add	r3, r3, #1024
 600 0020 9842     		cmp	r0, r3
ARM GAS  /var/folders/xw/ncjdtmf133b976k652zsj0500000gn/T//cc8MC9bm.s 			page 19


 601 0022 08D0     		beq	.L61
 602              		.loc 1 374 0 discriminator 4
 603 0024 03F58063 		add	r3, r3, #1024
 604 0028 9842     		cmp	r0, r3
 605 002a 04D0     		beq	.L61
 606              		.loc 1 374 0 discriminator 5
 607 002c 4FF4BB71 		mov	r1, #374
 608              	.LVL51:
 609 0030 3A48     		ldr	r0, .L80+4
 610              	.LVL52:
 611 0032 FFF7FEFF 		bl	assert_failed
 612              	.LVL53:
 613              	.L61:
 375:Drivers/STM32F1xx_HAL_Driver/Src/stm32f1xx_hal_gpio.c ****   assert_param(IS_GPIO_PIN(GPIO_Pin));
 614              		.loc 1 375 0 is_stmt 1
 615 0036 A3B2     		uxth	r3, r4
 616 0038 13B1     		cbz	r3, .L62
 617              		.loc 1 375 0 is_stmt 0 discriminator 2
 618 003a 230C     		lsrs	r3, r4, #16
 619 003c 1B04     		lsls	r3, r3, #16
 620 003e 23B1     		cbz	r3, .L63
 621              	.L62:
 622              		.loc 1 375 0 discriminator 3
 623 0040 40F27711 		movw	r1, #375
 624 0044 3548     		ldr	r0, .L80+4
 625 0046 FFF7FEFF 		bl	assert_failed
 626              	.LVL54:
 627              	.L63:
 376:Drivers/STM32F1xx_HAL_Driver/Src/stm32f1xx_hal_gpio.c **** 
 377:Drivers/STM32F1xx_HAL_Driver/Src/stm32f1xx_hal_gpio.c ****   /* Configure the port pins */
 378:Drivers/STM32F1xx_HAL_Driver/Src/stm32f1xx_hal_gpio.c ****   while ((GPIO_Pin >> position) != 0U)
 379:Drivers/STM32F1xx_HAL_Driver/Src/stm32f1xx_hal_gpio.c ****   {
 380:Drivers/STM32F1xx_HAL_Driver/Src/stm32f1xx_hal_gpio.c ****     /* Get current io position */
 381:Drivers/STM32F1xx_HAL_Driver/Src/stm32f1xx_hal_gpio.c ****     iocurrent = (GPIO_Pin) & (1U << position);
 382:Drivers/STM32F1xx_HAL_Driver/Src/stm32f1xx_hal_gpio.c **** 
 383:Drivers/STM32F1xx_HAL_Driver/Src/stm32f1xx_hal_gpio.c ****     if (iocurrent)
 384:Drivers/STM32F1xx_HAL_Driver/Src/stm32f1xx_hal_gpio.c ****     {
 385:Drivers/STM32F1xx_HAL_Driver/Src/stm32f1xx_hal_gpio.c ****       /*------------------------- GPIO Mode Configuration --------------------*/
 386:Drivers/STM32F1xx_HAL_Driver/Src/stm32f1xx_hal_gpio.c ****       /* Check if the current bit belongs to first half or last half of the pin count number
 387:Drivers/STM32F1xx_HAL_Driver/Src/stm32f1xx_hal_gpio.c ****        in order to address CRH or CRL register */
 388:Drivers/STM32F1xx_HAL_Driver/Src/stm32f1xx_hal_gpio.c ****       configregister = (iocurrent < GPIO_PIN_8) ? &GPIOx->CRL     : &GPIOx->CRH;
 389:Drivers/STM32F1xx_HAL_Driver/Src/stm32f1xx_hal_gpio.c ****       registeroffset = (iocurrent < GPIO_PIN_8) ? (position << 2U) : ((position - 8U) << 2U);
 390:Drivers/STM32F1xx_HAL_Driver/Src/stm32f1xx_hal_gpio.c **** 
 391:Drivers/STM32F1xx_HAL_Driver/Src/stm32f1xx_hal_gpio.c ****       /* CRL/CRH default value is floating input(0x04) shifted to correct position */
 392:Drivers/STM32F1xx_HAL_Driver/Src/stm32f1xx_hal_gpio.c ****       MODIFY_REG(*configregister, ((GPIO_CRL_MODE0 | GPIO_CRL_CNF0) << registeroffset), GPIO_CRL_CN
 393:Drivers/STM32F1xx_HAL_Driver/Src/stm32f1xx_hal_gpio.c **** 
 394:Drivers/STM32F1xx_HAL_Driver/Src/stm32f1xx_hal_gpio.c ****       /* ODR default value is 0 */
 395:Drivers/STM32F1xx_HAL_Driver/Src/stm32f1xx_hal_gpio.c ****       CLEAR_BIT(GPIOx->ODR, iocurrent);
 396:Drivers/STM32F1xx_HAL_Driver/Src/stm32f1xx_hal_gpio.c **** 
 397:Drivers/STM32F1xx_HAL_Driver/Src/stm32f1xx_hal_gpio.c ****       /*------------------------- EXTI Mode Configuration --------------------*/
 398:Drivers/STM32F1xx_HAL_Driver/Src/stm32f1xx_hal_gpio.c ****       /* Clear the External Interrupt or Event for the current IO */
 399:Drivers/STM32F1xx_HAL_Driver/Src/stm32f1xx_hal_gpio.c **** 
 400:Drivers/STM32F1xx_HAL_Driver/Src/stm32f1xx_hal_gpio.c ****       tmp = AFIO->EXTICR[position >> 2U];
 401:Drivers/STM32F1xx_HAL_Driver/Src/stm32f1xx_hal_gpio.c ****       tmp &= 0x0FU << (4U * (position & 0x03U));
 402:Drivers/STM32F1xx_HAL_Driver/Src/stm32f1xx_hal_gpio.c ****       if (tmp == (GPIO_GET_INDEX(GPIOx) << (4U * (position & 0x03U))))
 628              		.loc 1 402 0 is_stmt 1
 629 004a 0021     		movs	r1, #0
ARM GAS  /var/folders/xw/ncjdtmf133b976k652zsj0500000gn/T//cc8MC9bm.s 			page 20


 630 004c 0EE0     		b	.L64
 631              	.LVL55:
 632              	.L66:
 388:Drivers/STM32F1xx_HAL_Driver/Src/stm32f1xx_hal_gpio.c ****       registeroffset = (iocurrent < GPIO_PIN_8) ? (position << 2U) : ((position - 8U) << 2U);
 633              		.loc 1 388 0 discriminator 2
 634 004e 05F1040C 		add	ip, r5, #4
 635 0052 15E0     		b	.L67
 636              	.LVL56:
 637              	.L68:
 389:Drivers/STM32F1xx_HAL_Driver/Src/stm32f1xx_hal_gpio.c **** 
 638              		.loc 1 389 0 discriminator 2
 639 0054 A1F10806 		sub	r6, r1, #8
 640 0058 B700     		lsls	r7, r6, #2
 641 005a 14E0     		b	.L69
 642              	.LVL57:
 643              	.L79:
 644              		.loc 1 402 0
 645 005c 0327     		movs	r7, #3
 646 005e 00E0     		b	.L70
 647              	.L72:
 648 0060 0027     		movs	r7, #0
 649              	.L70:
 650              		.loc 1 402 0 is_stmt 0 discriminator 16
 651 0062 07FA02F2 		lsl	r2, r7, r2
 652 0066 B242     		cmp	r2, r6
 653 0068 3ED0     		beq	.L77
 654              	.LVL58:
 655              	.L65:
 403:Drivers/STM32F1xx_HAL_Driver/Src/stm32f1xx_hal_gpio.c ****       {
 404:Drivers/STM32F1xx_HAL_Driver/Src/stm32f1xx_hal_gpio.c ****         tmp = 0x0FU << (4U * (position & 0x03U));
 405:Drivers/STM32F1xx_HAL_Driver/Src/stm32f1xx_hal_gpio.c ****         CLEAR_BIT(AFIO->EXTICR[position >> 2U], tmp);
 406:Drivers/STM32F1xx_HAL_Driver/Src/stm32f1xx_hal_gpio.c **** 
 407:Drivers/STM32F1xx_HAL_Driver/Src/stm32f1xx_hal_gpio.c ****         /* Clear EXTI line configuration */
 408:Drivers/STM32F1xx_HAL_Driver/Src/stm32f1xx_hal_gpio.c ****         CLEAR_BIT(EXTI->IMR, (uint32_t)iocurrent);
 409:Drivers/STM32F1xx_HAL_Driver/Src/stm32f1xx_hal_gpio.c ****         CLEAR_BIT(EXTI->EMR, (uint32_t)iocurrent);
 410:Drivers/STM32F1xx_HAL_Driver/Src/stm32f1xx_hal_gpio.c **** 
 411:Drivers/STM32F1xx_HAL_Driver/Src/stm32f1xx_hal_gpio.c ****         /* Clear Rising Falling edge configuration */
 412:Drivers/STM32F1xx_HAL_Driver/Src/stm32f1xx_hal_gpio.c ****         CLEAR_BIT(EXTI->RTSR, (uint32_t)iocurrent);
 413:Drivers/STM32F1xx_HAL_Driver/Src/stm32f1xx_hal_gpio.c ****         CLEAR_BIT(EXTI->FTSR, (uint32_t)iocurrent);
 414:Drivers/STM32F1xx_HAL_Driver/Src/stm32f1xx_hal_gpio.c ****       }
 415:Drivers/STM32F1xx_HAL_Driver/Src/stm32f1xx_hal_gpio.c ****     }
 416:Drivers/STM32F1xx_HAL_Driver/Src/stm32f1xx_hal_gpio.c **** 
 417:Drivers/STM32F1xx_HAL_Driver/Src/stm32f1xx_hal_gpio.c ****     position++;
 656              		.loc 1 417 0 is_stmt 1
 657 006a 0131     		adds	r1, r1, #1
 658              	.LVL59:
 659              	.L64:
 378:Drivers/STM32F1xx_HAL_Driver/Src/stm32f1xx_hal_gpio.c ****   {
 660              		.loc 1 378 0
 661 006c 34FA01F3 		lsrs	r3, r4, r1
 662 0070 51D0     		beq	.L78
 381:Drivers/STM32F1xx_HAL_Driver/Src/stm32f1xx_hal_gpio.c **** 
 663              		.loc 1 381 0
 664 0072 0123     		movs	r3, #1
 665 0074 8B40     		lsls	r3, r3, r1
 666              	.LVL60:
 383:Drivers/STM32F1xx_HAL_Driver/Src/stm32f1xx_hal_gpio.c ****     {
ARM GAS  /var/folders/xw/ncjdtmf133b976k652zsj0500000gn/T//cc8MC9bm.s 			page 21


 667              		.loc 1 383 0
 668 0076 2340     		ands	r3, r3, r4
 669              	.LVL61:
 670 0078 F7D0     		beq	.L65
 388:Drivers/STM32F1xx_HAL_Driver/Src/stm32f1xx_hal_gpio.c ****       registeroffset = (iocurrent < GPIO_PIN_8) ? (position << 2U) : ((position - 8U) << 2U);
 671              		.loc 1 388 0
 672 007a FF2B     		cmp	r3, #255
 673 007c E7D8     		bhi	.L66
 388:Drivers/STM32F1xx_HAL_Driver/Src/stm32f1xx_hal_gpio.c ****       registeroffset = (iocurrent < GPIO_PIN_8) ? (position << 2U) : ((position - 8U) << 2U);
 674              		.loc 1 388 0 is_stmt 0 discriminator 1
 675 007e AC46     		mov	ip, r5
 676              	.L67:
 677              	.LVL62:
 389:Drivers/STM32F1xx_HAL_Driver/Src/stm32f1xx_hal_gpio.c **** 
 678              		.loc 1 389 0 is_stmt 1 discriminator 4
 679 0080 FF2B     		cmp	r3, #255
 680 0082 E7D8     		bhi	.L68
 389:Drivers/STM32F1xx_HAL_Driver/Src/stm32f1xx_hal_gpio.c **** 
 681              		.loc 1 389 0 is_stmt 0 discriminator 1
 682 0084 8F00     		lsls	r7, r1, #2
 683              	.L69:
 684              	.LVL63:
 392:Drivers/STM32F1xx_HAL_Driver/Src/stm32f1xx_hal_gpio.c **** 
 685              		.loc 1 392 0 is_stmt 1 discriminator 4
 686 0086 DCF80020 		ldr	r2, [ip]
 687 008a 0F20     		movs	r0, #15
 688 008c 00FA07F6 		lsl	r6, r0, r7
 689 0090 22EA0602 		bic	r2, r2, r6
 690 0094 0426     		movs	r6, #4
 691 0096 BE40     		lsls	r6, r6, r7
 692 0098 3243     		orrs	r2, r2, r6
 693 009a CCF80020 		str	r2, [ip]
 395:Drivers/STM32F1xx_HAL_Driver/Src/stm32f1xx_hal_gpio.c **** 
 694              		.loc 1 395 0 discriminator 4
 695 009e EA68     		ldr	r2, [r5, #12]
 696 00a0 DB43     		mvns	r3, r3
 697              	.LVL64:
 698 00a2 1A40     		ands	r2, r2, r3
 699 00a4 EA60     		str	r2, [r5, #12]
 400:Drivers/STM32F1xx_HAL_Driver/Src/stm32f1xx_hal_gpio.c ****       tmp &= 0x0FU << (4U * (position & 0x03U));
 700              		.loc 1 400 0 discriminator 4
 701 00a6 4FEA910C 		lsr	ip, r1, #2
 702              	.LVL65:
 703 00aa 0CF10206 		add	r6, ip, #2
 704 00ae 1C4A     		ldr	r2, .L80+8
 705 00b0 52F82660 		ldr	r6, [r2, r6, lsl #2]
 706              	.LVL66:
 401:Drivers/STM32F1xx_HAL_Driver/Src/stm32f1xx_hal_gpio.c ****       if (tmp == (GPIO_GET_INDEX(GPIOx) << (4U * (position & 0x03U))))
 707              		.loc 1 401 0 discriminator 4
 708 00b4 01F00302 		and	r2, r1, #3
 709 00b8 9200     		lsls	r2, r2, #2
 710 00ba 9040     		lsls	r0, r0, r2
 711 00bc 0640     		ands	r6, r6, r0
 712              	.LVL67:
 402:Drivers/STM32F1xx_HAL_Driver/Src/stm32f1xx_hal_gpio.c ****       {
 713              		.loc 1 402 0 discriminator 4
 714 00be 164F     		ldr	r7, .L80
ARM GAS  /var/folders/xw/ncjdtmf133b976k652zsj0500000gn/T//cc8MC9bm.s 			page 22


 715              	.LVL68:
 716 00c0 BD42     		cmp	r5, r7
 717 00c2 CDD0     		beq	.L72
 402:Drivers/STM32F1xx_HAL_Driver/Src/stm32f1xx_hal_gpio.c ****       {
 718              		.loc 1 402 0 is_stmt 0 discriminator 1
 719 00c4 07F58067 		add	r7, r7, #1024
 720 00c8 BD42     		cmp	r5, r7
 721 00ca 09D0     		beq	.L73
 402:Drivers/STM32F1xx_HAL_Driver/Src/stm32f1xx_hal_gpio.c ****       {
 722              		.loc 1 402 0 discriminator 3
 723 00cc 07F58067 		add	r7, r7, #1024
 724 00d0 BD42     		cmp	r5, r7
 725 00d2 07D0     		beq	.L74
 402:Drivers/STM32F1xx_HAL_Driver/Src/stm32f1xx_hal_gpio.c ****       {
 726              		.loc 1 402 0 discriminator 5
 727 00d4 07F58067 		add	r7, r7, #1024
 728 00d8 BD42     		cmp	r5, r7
 729 00da BFD0     		beq	.L79
 402:Drivers/STM32F1xx_HAL_Driver/Src/stm32f1xx_hal_gpio.c ****       {
 730              		.loc 1 402 0
 731 00dc 0427     		movs	r7, #4
 732 00de C0E7     		b	.L70
 733              	.L73:
 734 00e0 0127     		movs	r7, #1
 735 00e2 BEE7     		b	.L70
 736              	.L74:
 737 00e4 0227     		movs	r7, #2
 738 00e6 BCE7     		b	.L70
 739              	.L77:
 740              	.LVL69:
 405:Drivers/STM32F1xx_HAL_Driver/Src/stm32f1xx_hal_gpio.c **** 
 741              		.loc 1 405 0 is_stmt 1
 742 00e8 0D4F     		ldr	r7, .L80+8
 743 00ea 0CF10202 		add	r2, ip, #2
 744 00ee 57F82260 		ldr	r6, [r7, r2, lsl #2]
 745 00f2 26EA0000 		bic	r0, r6, r0
 746              	.LVL70:
 747 00f6 47F82200 		str	r0, [r7, r2, lsl #2]
 408:Drivers/STM32F1xx_HAL_Driver/Src/stm32f1xx_hal_gpio.c ****         CLEAR_BIT(EXTI->EMR, (uint32_t)iocurrent);
 748              		.loc 1 408 0
 749 00fa 0A4A     		ldr	r2, .L80+12
 750 00fc 1068     		ldr	r0, [r2]
 751 00fe 1840     		ands	r0, r0, r3
 752 0100 1060     		str	r0, [r2]
 409:Drivers/STM32F1xx_HAL_Driver/Src/stm32f1xx_hal_gpio.c **** 
 753              		.loc 1 409 0
 754 0102 5068     		ldr	r0, [r2, #4]
 755 0104 1840     		ands	r0, r0, r3
 756 0106 5060     		str	r0, [r2, #4]
 412:Drivers/STM32F1xx_HAL_Driver/Src/stm32f1xx_hal_gpio.c ****         CLEAR_BIT(EXTI->FTSR, (uint32_t)iocurrent);
 757              		.loc 1 412 0
 758 0108 9068     		ldr	r0, [r2, #8]
 759 010a 1840     		ands	r0, r0, r3
 760 010c 9060     		str	r0, [r2, #8]
 413:Drivers/STM32F1xx_HAL_Driver/Src/stm32f1xx_hal_gpio.c ****       }
 761              		.loc 1 413 0
 762 010e D068     		ldr	r0, [r2, #12]
ARM GAS  /var/folders/xw/ncjdtmf133b976k652zsj0500000gn/T//cc8MC9bm.s 			page 23


 763 0110 0340     		ands	r3, r3, r0
 764              	.LVL71:
 765 0112 D360     		str	r3, [r2, #12]
 766 0114 A9E7     		b	.L65
 767              	.LVL72:
 768              	.L78:
 418:Drivers/STM32F1xx_HAL_Driver/Src/stm32f1xx_hal_gpio.c ****   }
 419:Drivers/STM32F1xx_HAL_Driver/Src/stm32f1xx_hal_gpio.c **** }
 769              		.loc 1 419 0
 770 0116 F8BD     		pop	{r3, r4, r5, r6, r7, pc}
 771              	.LVL73:
 772              	.L81:
 773              		.align	2
 774              	.L80:
 775 0118 00080140 		.word	1073809408
 776 011c 00000000 		.word	.LC0
 777 0120 00000140 		.word	1073807360
 778 0124 00040140 		.word	1073808384
 779              		.cfi_endproc
 780              	.LFE67:
 782              		.section	.text.HAL_GPIO_ReadPin,"ax",%progbits
 783              		.align	1
 784              		.global	HAL_GPIO_ReadPin
 785              		.syntax unified
 786              		.thumb
 787              		.thumb_func
 788              		.fpu softvfp
 790              	HAL_GPIO_ReadPin:
 791              	.LFB68:
 420:Drivers/STM32F1xx_HAL_Driver/Src/stm32f1xx_hal_gpio.c **** 
 421:Drivers/STM32F1xx_HAL_Driver/Src/stm32f1xx_hal_gpio.c **** /**
 422:Drivers/STM32F1xx_HAL_Driver/Src/stm32f1xx_hal_gpio.c ****   * @}
 423:Drivers/STM32F1xx_HAL_Driver/Src/stm32f1xx_hal_gpio.c ****   */
 424:Drivers/STM32F1xx_HAL_Driver/Src/stm32f1xx_hal_gpio.c **** 
 425:Drivers/STM32F1xx_HAL_Driver/Src/stm32f1xx_hal_gpio.c **** /** @defgroup GPIO_Exported_Functions_Group2 IO operation functions
 426:Drivers/STM32F1xx_HAL_Driver/Src/stm32f1xx_hal_gpio.c ****  *  @brief   GPIO Read and Write
 427:Drivers/STM32F1xx_HAL_Driver/Src/stm32f1xx_hal_gpio.c ****  *
 428:Drivers/STM32F1xx_HAL_Driver/Src/stm32f1xx_hal_gpio.c **** @verbatim
 429:Drivers/STM32F1xx_HAL_Driver/Src/stm32f1xx_hal_gpio.c ****  ===============================================================================
 430:Drivers/STM32F1xx_HAL_Driver/Src/stm32f1xx_hal_gpio.c ****                        ##### IO operation functions #####
 431:Drivers/STM32F1xx_HAL_Driver/Src/stm32f1xx_hal_gpio.c ****  ===============================================================================
 432:Drivers/STM32F1xx_HAL_Driver/Src/stm32f1xx_hal_gpio.c ****   [..]
 433:Drivers/STM32F1xx_HAL_Driver/Src/stm32f1xx_hal_gpio.c ****     This subsection provides a set of functions allowing to manage the GPIOs.
 434:Drivers/STM32F1xx_HAL_Driver/Src/stm32f1xx_hal_gpio.c **** 
 435:Drivers/STM32F1xx_HAL_Driver/Src/stm32f1xx_hal_gpio.c **** @endverbatim
 436:Drivers/STM32F1xx_HAL_Driver/Src/stm32f1xx_hal_gpio.c ****   * @{
 437:Drivers/STM32F1xx_HAL_Driver/Src/stm32f1xx_hal_gpio.c ****   */
 438:Drivers/STM32F1xx_HAL_Driver/Src/stm32f1xx_hal_gpio.c **** 
 439:Drivers/STM32F1xx_HAL_Driver/Src/stm32f1xx_hal_gpio.c **** /**
 440:Drivers/STM32F1xx_HAL_Driver/Src/stm32f1xx_hal_gpio.c ****   * @brief  Reads the specified input port pin.
 441:Drivers/STM32F1xx_HAL_Driver/Src/stm32f1xx_hal_gpio.c ****   * @param  GPIOx: where x can be (A..G depending on device used) to select the GPIO peripheral
 442:Drivers/STM32F1xx_HAL_Driver/Src/stm32f1xx_hal_gpio.c ****   * @param  GPIO_Pin: specifies the port bit to read.
 443:Drivers/STM32F1xx_HAL_Driver/Src/stm32f1xx_hal_gpio.c ****   *         This parameter can be GPIO_PIN_x where x can be (0..15).
 444:Drivers/STM32F1xx_HAL_Driver/Src/stm32f1xx_hal_gpio.c ****   * @retval The input port pin value.
 445:Drivers/STM32F1xx_HAL_Driver/Src/stm32f1xx_hal_gpio.c ****   */
 446:Drivers/STM32F1xx_HAL_Driver/Src/stm32f1xx_hal_gpio.c **** GPIO_PinState HAL_GPIO_ReadPin(GPIO_TypeDef *GPIOx, uint16_t GPIO_Pin)
 447:Drivers/STM32F1xx_HAL_Driver/Src/stm32f1xx_hal_gpio.c **** {
ARM GAS  /var/folders/xw/ncjdtmf133b976k652zsj0500000gn/T//cc8MC9bm.s 			page 24


 792              		.loc 1 447 0
 793              		.cfi_startproc
 794              		@ args = 0, pretend = 0, frame = 0
 795              		@ frame_needed = 0, uses_anonymous_args = 0
 796              	.LVL74:
 797 0000 38B5     		push	{r3, r4, r5, lr}
 798              	.LCFI4:
 799              		.cfi_def_cfa_offset 16
 800              		.cfi_offset 3, -16
 801              		.cfi_offset 4, -12
 802              		.cfi_offset 5, -8
 803              		.cfi_offset 14, -4
 804 0002 0546     		mov	r5, r0
 448:Drivers/STM32F1xx_HAL_Driver/Src/stm32f1xx_hal_gpio.c ****   GPIO_PinState bitstatus;
 449:Drivers/STM32F1xx_HAL_Driver/Src/stm32f1xx_hal_gpio.c **** 
 450:Drivers/STM32F1xx_HAL_Driver/Src/stm32f1xx_hal_gpio.c ****   /* Check the parameters */
 451:Drivers/STM32F1xx_HAL_Driver/Src/stm32f1xx_hal_gpio.c ****   assert_param(IS_GPIO_PIN(GPIO_Pin));
 805              		.loc 1 451 0
 806 0004 0C46     		mov	r4, r1
 807 0006 21B1     		cbz	r1, .L88
 808              	.LVL75:
 809              	.L84:
 452:Drivers/STM32F1xx_HAL_Driver/Src/stm32f1xx_hal_gpio.c **** 
 453:Drivers/STM32F1xx_HAL_Driver/Src/stm32f1xx_hal_gpio.c ****   if ((GPIOx->IDR & GPIO_Pin) != (uint32_t)GPIO_PIN_RESET)
 810              		.loc 1 453 0
 811 0008 AB68     		ldr	r3, [r5, #8]
 812 000a 1C42     		tst	r4, r3
 813 000c 07D1     		bne	.L89
 454:Drivers/STM32F1xx_HAL_Driver/Src/stm32f1xx_hal_gpio.c ****   {
 455:Drivers/STM32F1xx_HAL_Driver/Src/stm32f1xx_hal_gpio.c ****     bitstatus = GPIO_PIN_SET;
 456:Drivers/STM32F1xx_HAL_Driver/Src/stm32f1xx_hal_gpio.c ****   }
 457:Drivers/STM32F1xx_HAL_Driver/Src/stm32f1xx_hal_gpio.c ****   else
 458:Drivers/STM32F1xx_HAL_Driver/Src/stm32f1xx_hal_gpio.c ****   {
 459:Drivers/STM32F1xx_HAL_Driver/Src/stm32f1xx_hal_gpio.c ****     bitstatus = GPIO_PIN_RESET;
 814              		.loc 1 459 0
 815 000e 0020     		movs	r0, #0
 816              	.L85:
 817              	.LVL76:
 460:Drivers/STM32F1xx_HAL_Driver/Src/stm32f1xx_hal_gpio.c ****   }
 461:Drivers/STM32F1xx_HAL_Driver/Src/stm32f1xx_hal_gpio.c ****   return bitstatus;
 462:Drivers/STM32F1xx_HAL_Driver/Src/stm32f1xx_hal_gpio.c **** }
 818              		.loc 1 462 0
 819 0010 38BD     		pop	{r3, r4, r5, pc}
 820              	.LVL77:
 821              	.L88:
 451:Drivers/STM32F1xx_HAL_Driver/Src/stm32f1xx_hal_gpio.c **** 
 822              		.loc 1 451 0 discriminator 3
 823 0012 40F2C311 		movw	r1, #451
 824              	.LVL78:
 825 0016 0348     		ldr	r0, .L90
 826              	.LVL79:
 827 0018 FFF7FEFF 		bl	assert_failed
 828              	.LVL80:
 829 001c F4E7     		b	.L84
 830              	.L89:
 455:Drivers/STM32F1xx_HAL_Driver/Src/stm32f1xx_hal_gpio.c ****   }
 831              		.loc 1 455 0
ARM GAS  /var/folders/xw/ncjdtmf133b976k652zsj0500000gn/T//cc8MC9bm.s 			page 25


 832 001e 0120     		movs	r0, #1
 833 0020 F6E7     		b	.L85
 834              	.L91:
 835 0022 00BF     		.align	2
 836              	.L90:
 837 0024 00000000 		.word	.LC0
 838              		.cfi_endproc
 839              	.LFE68:
 841              		.section	.text.HAL_GPIO_WritePin,"ax",%progbits
 842              		.align	1
 843              		.global	HAL_GPIO_WritePin
 844              		.syntax unified
 845              		.thumb
 846              		.thumb_func
 847              		.fpu softvfp
 849              	HAL_GPIO_WritePin:
 850              	.LFB69:
 463:Drivers/STM32F1xx_HAL_Driver/Src/stm32f1xx_hal_gpio.c **** 
 464:Drivers/STM32F1xx_HAL_Driver/Src/stm32f1xx_hal_gpio.c **** /**
 465:Drivers/STM32F1xx_HAL_Driver/Src/stm32f1xx_hal_gpio.c ****   * @brief  Sets or clears the selected data port bit.
 466:Drivers/STM32F1xx_HAL_Driver/Src/stm32f1xx_hal_gpio.c ****   *
 467:Drivers/STM32F1xx_HAL_Driver/Src/stm32f1xx_hal_gpio.c ****   * @note   This function uses GPIOx_BSRR register to allow atomic read/modify
 468:Drivers/STM32F1xx_HAL_Driver/Src/stm32f1xx_hal_gpio.c ****   *         accesses. In this way, there is no risk of an IRQ occurring between
 469:Drivers/STM32F1xx_HAL_Driver/Src/stm32f1xx_hal_gpio.c ****   *         the read and the modify access.
 470:Drivers/STM32F1xx_HAL_Driver/Src/stm32f1xx_hal_gpio.c ****   *
 471:Drivers/STM32F1xx_HAL_Driver/Src/stm32f1xx_hal_gpio.c ****   * @param  GPIOx: where x can be (A..G depending on device used) to select the GPIO peripheral
 472:Drivers/STM32F1xx_HAL_Driver/Src/stm32f1xx_hal_gpio.c ****   * @param  GPIO_Pin: specifies the port bit to be written.
 473:Drivers/STM32F1xx_HAL_Driver/Src/stm32f1xx_hal_gpio.c ****   *          This parameter can be one of GPIO_PIN_x where x can be (0..15).
 474:Drivers/STM32F1xx_HAL_Driver/Src/stm32f1xx_hal_gpio.c ****   * @param  PinState: specifies the value to be written to the selected bit.
 475:Drivers/STM32F1xx_HAL_Driver/Src/stm32f1xx_hal_gpio.c ****   *          This parameter can be one of the GPIO_PinState enum values:
 476:Drivers/STM32F1xx_HAL_Driver/Src/stm32f1xx_hal_gpio.c ****   *            @arg GPIO_PIN_RESET: to clear the port pin
 477:Drivers/STM32F1xx_HAL_Driver/Src/stm32f1xx_hal_gpio.c ****   *            @arg GPIO_PIN_SET: to set the port pin
 478:Drivers/STM32F1xx_HAL_Driver/Src/stm32f1xx_hal_gpio.c ****   * @retval None
 479:Drivers/STM32F1xx_HAL_Driver/Src/stm32f1xx_hal_gpio.c ****   */
 480:Drivers/STM32F1xx_HAL_Driver/Src/stm32f1xx_hal_gpio.c **** void HAL_GPIO_WritePin(GPIO_TypeDef *GPIOx, uint16_t GPIO_Pin, GPIO_PinState PinState)
 481:Drivers/STM32F1xx_HAL_Driver/Src/stm32f1xx_hal_gpio.c **** {
 851              		.loc 1 481 0
 852              		.cfi_startproc
 853              		@ args = 0, pretend = 0, frame = 0
 854              		@ frame_needed = 0, uses_anonymous_args = 0
 855              	.LVL81:
 856 0000 70B5     		push	{r4, r5, r6, lr}
 857              	.LCFI5:
 858              		.cfi_def_cfa_offset 16
 859              		.cfi_offset 4, -16
 860              		.cfi_offset 5, -12
 861              		.cfi_offset 6, -8
 862              		.cfi_offset 14, -4
 863 0002 0646     		mov	r6, r0
 864 0004 1546     		mov	r5, r2
 482:Drivers/STM32F1xx_HAL_Driver/Src/stm32f1xx_hal_gpio.c ****   /* Check the parameters */
 483:Drivers/STM32F1xx_HAL_Driver/Src/stm32f1xx_hal_gpio.c ****   assert_param(IS_GPIO_PIN(GPIO_Pin));
 865              		.loc 1 483 0
 866 0006 0C46     		mov	r4, r1
 867 0008 29B1     		cbz	r1, .L99
 868              	.LVL82:
 869              	.L94:
ARM GAS  /var/folders/xw/ncjdtmf133b976k652zsj0500000gn/T//cc8MC9bm.s 			page 26


 484:Drivers/STM32F1xx_HAL_Driver/Src/stm32f1xx_hal_gpio.c ****   assert_param(IS_GPIO_PIN_ACTION(PinState));
 870              		.loc 1 484 0
 871 000a 012D     		cmp	r5, #1
 872 000c 09D8     		bhi	.L100
 873              	.L95:
 485:Drivers/STM32F1xx_HAL_Driver/Src/stm32f1xx_hal_gpio.c **** 
 486:Drivers/STM32F1xx_HAL_Driver/Src/stm32f1xx_hal_gpio.c ****   if (PinState != GPIO_PIN_RESET)
 874              		.loc 1 486 0
 875 000e 75B9     		cbnz	r5, .L101
 487:Drivers/STM32F1xx_HAL_Driver/Src/stm32f1xx_hal_gpio.c ****   {
 488:Drivers/STM32F1xx_HAL_Driver/Src/stm32f1xx_hal_gpio.c ****     GPIOx->BSRR = GPIO_Pin;
 489:Drivers/STM32F1xx_HAL_Driver/Src/stm32f1xx_hal_gpio.c ****   }
 490:Drivers/STM32F1xx_HAL_Driver/Src/stm32f1xx_hal_gpio.c ****   else
 491:Drivers/STM32F1xx_HAL_Driver/Src/stm32f1xx_hal_gpio.c ****   {
 492:Drivers/STM32F1xx_HAL_Driver/Src/stm32f1xx_hal_gpio.c ****     GPIOx->BSRR = (uint32_t)GPIO_Pin << 16U;
 876              		.loc 1 492 0
 877 0010 2404     		lsls	r4, r4, #16
 878 0012 3461     		str	r4, [r6, #16]
 879              	.L92:
 493:Drivers/STM32F1xx_HAL_Driver/Src/stm32f1xx_hal_gpio.c ****   }
 494:Drivers/STM32F1xx_HAL_Driver/Src/stm32f1xx_hal_gpio.c **** }
 880              		.loc 1 494 0
 881 0014 70BD     		pop	{r4, r5, r6, pc}
 882              	.LVL83:
 883              	.L99:
 483:Drivers/STM32F1xx_HAL_Driver/Src/stm32f1xx_hal_gpio.c ****   assert_param(IS_GPIO_PIN_ACTION(PinState));
 884              		.loc 1 483 0 discriminator 3
 885 0016 40F2E311 		movw	r1, #483
 886              	.LVL84:
 887 001a 0648     		ldr	r0, .L102
 888              	.LVL85:
 889 001c FFF7FEFF 		bl	assert_failed
 890              	.LVL86:
 891 0020 F3E7     		b	.L94
 892              	.L100:
 484:Drivers/STM32F1xx_HAL_Driver/Src/stm32f1xx_hal_gpio.c **** 
 893              		.loc 1 484 0 discriminator 1
 894 0022 4FF4F271 		mov	r1, #484
 895 0026 0348     		ldr	r0, .L102
 896 0028 FFF7FEFF 		bl	assert_failed
 897              	.LVL87:
 898 002c EFE7     		b	.L95
 899              	.L101:
 488:Drivers/STM32F1xx_HAL_Driver/Src/stm32f1xx_hal_gpio.c ****   }
 900              		.loc 1 488 0
 901 002e 3461     		str	r4, [r6, #16]
 902 0030 F0E7     		b	.L92
 903              	.L103:
 904 0032 00BF     		.align	2
 905              	.L102:
 906 0034 00000000 		.word	.LC0
 907              		.cfi_endproc
 908              	.LFE69:
 910              		.section	.text.HAL_GPIO_TogglePin,"ax",%progbits
 911              		.align	1
 912              		.global	HAL_GPIO_TogglePin
 913              		.syntax unified
ARM GAS  /var/folders/xw/ncjdtmf133b976k652zsj0500000gn/T//cc8MC9bm.s 			page 27


 914              		.thumb
 915              		.thumb_func
 916              		.fpu softvfp
 918              	HAL_GPIO_TogglePin:
 919              	.LFB70:
 495:Drivers/STM32F1xx_HAL_Driver/Src/stm32f1xx_hal_gpio.c **** 
 496:Drivers/STM32F1xx_HAL_Driver/Src/stm32f1xx_hal_gpio.c **** /**
 497:Drivers/STM32F1xx_HAL_Driver/Src/stm32f1xx_hal_gpio.c ****   * @brief  Toggles the specified GPIO pin
 498:Drivers/STM32F1xx_HAL_Driver/Src/stm32f1xx_hal_gpio.c ****   * @param  GPIOx: where x can be (A..G depending on device used) to select the GPIO peripheral
 499:Drivers/STM32F1xx_HAL_Driver/Src/stm32f1xx_hal_gpio.c ****   * @param  GPIO_Pin: Specifies the pins to be toggled.
 500:Drivers/STM32F1xx_HAL_Driver/Src/stm32f1xx_hal_gpio.c ****   * @retval None
 501:Drivers/STM32F1xx_HAL_Driver/Src/stm32f1xx_hal_gpio.c ****   */
 502:Drivers/STM32F1xx_HAL_Driver/Src/stm32f1xx_hal_gpio.c **** void HAL_GPIO_TogglePin(GPIO_TypeDef *GPIOx, uint16_t GPIO_Pin)
 503:Drivers/STM32F1xx_HAL_Driver/Src/stm32f1xx_hal_gpio.c **** {
 920              		.loc 1 503 0
 921              		.cfi_startproc
 922              		@ args = 0, pretend = 0, frame = 0
 923              		@ frame_needed = 0, uses_anonymous_args = 0
 924              	.LVL88:
 925 0000 38B5     		push	{r3, r4, r5, lr}
 926              	.LCFI6:
 927              		.cfi_def_cfa_offset 16
 928              		.cfi_offset 3, -16
 929              		.cfi_offset 4, -12
 930              		.cfi_offset 5, -8
 931              		.cfi_offset 14, -4
 932 0002 0546     		mov	r5, r0
 504:Drivers/STM32F1xx_HAL_Driver/Src/stm32f1xx_hal_gpio.c ****   /* Check the parameters */
 505:Drivers/STM32F1xx_HAL_Driver/Src/stm32f1xx_hal_gpio.c ****   assert_param(IS_GPIO_PIN(GPIO_Pin));
 933              		.loc 1 505 0
 934 0004 0C46     		mov	r4, r1
 935 0006 21B9     		cbnz	r1, .L106
 936              		.loc 1 505 0 is_stmt 0 discriminator 3
 937 0008 40F2F911 		movw	r1, #505
 938              	.LVL89:
 939 000c 0348     		ldr	r0, .L108
 940              	.LVL90:
 941 000e FFF7FEFF 		bl	assert_failed
 942              	.LVL91:
 943              	.L106:
 506:Drivers/STM32F1xx_HAL_Driver/Src/stm32f1xx_hal_gpio.c **** 
 507:Drivers/STM32F1xx_HAL_Driver/Src/stm32f1xx_hal_gpio.c ****   GPIOx->ODR ^= GPIO_Pin;
 944              		.loc 1 507 0 is_stmt 1
 945 0012 EB68     		ldr	r3, [r5, #12]
 946 0014 5C40     		eors	r4, r4, r3
 947 0016 EC60     		str	r4, [r5, #12]
 508:Drivers/STM32F1xx_HAL_Driver/Src/stm32f1xx_hal_gpio.c **** }
 948              		.loc 1 508 0
 949 0018 38BD     		pop	{r3, r4, r5, pc}
 950              	.LVL92:
 951              	.L109:
 952 001a 00BF     		.align	2
 953              	.L108:
 954 001c 00000000 		.word	.LC0
 955              		.cfi_endproc
 956              	.LFE70:
 958              		.section	.text.HAL_GPIO_LockPin,"ax",%progbits
ARM GAS  /var/folders/xw/ncjdtmf133b976k652zsj0500000gn/T//cc8MC9bm.s 			page 28


 959              		.align	1
 960              		.global	HAL_GPIO_LockPin
 961              		.syntax unified
 962              		.thumb
 963              		.thumb_func
 964              		.fpu softvfp
 966              	HAL_GPIO_LockPin:
 967              	.LFB71:
 509:Drivers/STM32F1xx_HAL_Driver/Src/stm32f1xx_hal_gpio.c **** 
 510:Drivers/STM32F1xx_HAL_Driver/Src/stm32f1xx_hal_gpio.c **** /**
 511:Drivers/STM32F1xx_HAL_Driver/Src/stm32f1xx_hal_gpio.c **** * @brief  Locks GPIO Pins configuration registers.
 512:Drivers/STM32F1xx_HAL_Driver/Src/stm32f1xx_hal_gpio.c **** * @note   The locking mechanism allows the IO configuration to be frozen. When the LOCK sequence
 513:Drivers/STM32F1xx_HAL_Driver/Src/stm32f1xx_hal_gpio.c **** *         has been applied on a port bit, it is no longer possible to modify the value of the port 
 514:Drivers/STM32F1xx_HAL_Driver/Src/stm32f1xx_hal_gpio.c **** *         the next reset.
 515:Drivers/STM32F1xx_HAL_Driver/Src/stm32f1xx_hal_gpio.c **** * @param  GPIOx: where x can be (A..G depending on device used) to select the GPIO peripheral
 516:Drivers/STM32F1xx_HAL_Driver/Src/stm32f1xx_hal_gpio.c **** * @param  GPIO_Pin: specifies the port bit to be locked.
 517:Drivers/STM32F1xx_HAL_Driver/Src/stm32f1xx_hal_gpio.c **** *         This parameter can be any combination of GPIO_Pin_x where x can be (0..15).
 518:Drivers/STM32F1xx_HAL_Driver/Src/stm32f1xx_hal_gpio.c **** * @retval None
 519:Drivers/STM32F1xx_HAL_Driver/Src/stm32f1xx_hal_gpio.c **** */
 520:Drivers/STM32F1xx_HAL_Driver/Src/stm32f1xx_hal_gpio.c **** HAL_StatusTypeDef HAL_GPIO_LockPin(GPIO_TypeDef *GPIOx, uint16_t GPIO_Pin)
 521:Drivers/STM32F1xx_HAL_Driver/Src/stm32f1xx_hal_gpio.c **** {
 968              		.loc 1 521 0
 969              		.cfi_startproc
 970              		@ args = 0, pretend = 0, frame = 8
 971              		@ frame_needed = 0, uses_anonymous_args = 0
 972              	.LVL93:
 973 0000 30B5     		push	{r4, r5, lr}
 974              	.LCFI7:
 975              		.cfi_def_cfa_offset 12
 976              		.cfi_offset 4, -12
 977              		.cfi_offset 5, -8
 978              		.cfi_offset 14, -4
 979 0002 83B0     		sub	sp, sp, #12
 980              	.LCFI8:
 981              		.cfi_def_cfa_offset 24
 982 0004 0446     		mov	r4, r0
 983 0006 0D46     		mov	r5, r1
 522:Drivers/STM32F1xx_HAL_Driver/Src/stm32f1xx_hal_gpio.c ****   __IO uint32_t tmp = GPIO_LCKR_LCKK;
 984              		.loc 1 522 0
 985 0008 4FF48033 		mov	r3, #65536
 986 000c 0193     		str	r3, [sp, #4]
 523:Drivers/STM32F1xx_HAL_Driver/Src/stm32f1xx_hal_gpio.c **** 
 524:Drivers/STM32F1xx_HAL_Driver/Src/stm32f1xx_hal_gpio.c ****   /* Check the parameters */
 525:Drivers/STM32F1xx_HAL_Driver/Src/stm32f1xx_hal_gpio.c ****   assert_param(IS_GPIO_LOCK_INSTANCE(GPIOx));
 987              		.loc 1 525 0
 988 000e 03F18043 		add	r3, r3, #1073741824
 989 0012 03F50063 		add	r3, r3, #2048
 990 0016 9842     		cmp	r0, r3
 991 0018 14D0     		beq	.L111
 992              		.loc 1 525 0 is_stmt 0 discriminator 1
 993 001a 03F58063 		add	r3, r3, #1024
 994 001e 9842     		cmp	r0, r3
 995 0020 10D0     		beq	.L111
 996              		.loc 1 525 0 discriminator 2
 997 0022 03F58063 		add	r3, r3, #1024
 998 0026 9842     		cmp	r0, r3
 999 0028 0CD0     		beq	.L111
ARM GAS  /var/folders/xw/ncjdtmf133b976k652zsj0500000gn/T//cc8MC9bm.s 			page 29


 1000              		.loc 1 525 0 discriminator 3
 1001 002a 03F58063 		add	r3, r3, #1024
 1002 002e 9842     		cmp	r0, r3
 1003 0030 08D0     		beq	.L111
 1004              		.loc 1 525 0 discriminator 4
 1005 0032 03F58063 		add	r3, r3, #1024
 1006 0036 9842     		cmp	r0, r3
 1007 0038 04D0     		beq	.L111
 1008              		.loc 1 525 0 discriminator 5
 1009 003a 40F20D21 		movw	r1, #525
 1010              	.LVL94:
 1011 003e 0E48     		ldr	r0, .L119
 1012              	.LVL95:
 1013 0040 FFF7FEFF 		bl	assert_failed
 1014              	.LVL96:
 1015              	.L111:
 526:Drivers/STM32F1xx_HAL_Driver/Src/stm32f1xx_hal_gpio.c ****   assert_param(IS_GPIO_PIN(GPIO_Pin));
 1016              		.loc 1 526 0 is_stmt 1
 1017 0044 85B1     		cbz	r5, .L117
 1018              	.L113:
 527:Drivers/STM32F1xx_HAL_Driver/Src/stm32f1xx_hal_gpio.c **** 
 528:Drivers/STM32F1xx_HAL_Driver/Src/stm32f1xx_hal_gpio.c ****   /* Apply lock key write sequence */
 529:Drivers/STM32F1xx_HAL_Driver/Src/stm32f1xx_hal_gpio.c ****   SET_BIT(tmp, GPIO_Pin);
 1019              		.loc 1 529 0
 1020 0046 019B     		ldr	r3, [sp, #4]
 1021 0048 2B43     		orrs	r3, r3, r5
 1022 004a 0193     		str	r3, [sp, #4]
 530:Drivers/STM32F1xx_HAL_Driver/Src/stm32f1xx_hal_gpio.c ****   /* Set LCKx bit(s): LCKK='1' + LCK[15-0] */
 531:Drivers/STM32F1xx_HAL_Driver/Src/stm32f1xx_hal_gpio.c ****   GPIOx->LCKR = tmp;
 1023              		.loc 1 531 0
 1024 004c 019B     		ldr	r3, [sp, #4]
 1025 004e A361     		str	r3, [r4, #24]
 532:Drivers/STM32F1xx_HAL_Driver/Src/stm32f1xx_hal_gpio.c ****   /* Reset LCKx bit(s): LCKK='0' + LCK[15-0] */
 533:Drivers/STM32F1xx_HAL_Driver/Src/stm32f1xx_hal_gpio.c ****   GPIOx->LCKR = GPIO_Pin;
 1026              		.loc 1 533 0
 1027 0050 A561     		str	r5, [r4, #24]
 534:Drivers/STM32F1xx_HAL_Driver/Src/stm32f1xx_hal_gpio.c ****   /* Set LCKx bit(s): LCKK='1' + LCK[15-0] */
 535:Drivers/STM32F1xx_HAL_Driver/Src/stm32f1xx_hal_gpio.c ****   GPIOx->LCKR = tmp;
 1028              		.loc 1 535 0
 1029 0052 019B     		ldr	r3, [sp, #4]
 1030 0054 A361     		str	r3, [r4, #24]
 536:Drivers/STM32F1xx_HAL_Driver/Src/stm32f1xx_hal_gpio.c ****   /* Read LCKK bit*/
 537:Drivers/STM32F1xx_HAL_Driver/Src/stm32f1xx_hal_gpio.c ****   tmp = GPIOx->LCKR;
 1031              		.loc 1 537 0
 1032 0056 A369     		ldr	r3, [r4, #24]
 1033 0058 0193     		str	r3, [sp, #4]
 538:Drivers/STM32F1xx_HAL_Driver/Src/stm32f1xx_hal_gpio.c **** 
 539:Drivers/STM32F1xx_HAL_Driver/Src/stm32f1xx_hal_gpio.c ****   if ((uint32_t)(GPIOx->LCKR & GPIO_LCKR_LCKK))
 1034              		.loc 1 539 0
 1035 005a A369     		ldr	r3, [r4, #24]
 1036 005c 13F4803F 		tst	r3, #65536
 1037 0060 08D1     		bne	.L118
 540:Drivers/STM32F1xx_HAL_Driver/Src/stm32f1xx_hal_gpio.c ****   {
 541:Drivers/STM32F1xx_HAL_Driver/Src/stm32f1xx_hal_gpio.c ****     return HAL_OK;
 542:Drivers/STM32F1xx_HAL_Driver/Src/stm32f1xx_hal_gpio.c ****   }
 543:Drivers/STM32F1xx_HAL_Driver/Src/stm32f1xx_hal_gpio.c ****   else
 544:Drivers/STM32F1xx_HAL_Driver/Src/stm32f1xx_hal_gpio.c ****   {
ARM GAS  /var/folders/xw/ncjdtmf133b976k652zsj0500000gn/T//cc8MC9bm.s 			page 30


 545:Drivers/STM32F1xx_HAL_Driver/Src/stm32f1xx_hal_gpio.c ****     return HAL_ERROR;
 1038              		.loc 1 545 0
 1039 0062 0120     		movs	r0, #1
 1040              	.L114:
 546:Drivers/STM32F1xx_HAL_Driver/Src/stm32f1xx_hal_gpio.c ****   }
 547:Drivers/STM32F1xx_HAL_Driver/Src/stm32f1xx_hal_gpio.c **** }
 1041              		.loc 1 547 0
 1042 0064 03B0     		add	sp, sp, #12
 1043              	.LCFI9:
 1044              		.cfi_remember_state
 1045              		.cfi_def_cfa_offset 12
 1046              		@ sp needed
 1047 0066 30BD     		pop	{r4, r5, pc}
 1048              	.LVL97:
 1049              	.L117:
 1050              	.LCFI10:
 1051              		.cfi_restore_state
 526:Drivers/STM32F1xx_HAL_Driver/Src/stm32f1xx_hal_gpio.c **** 
 1052              		.loc 1 526 0 discriminator 3
 1053 0068 40F20E21 		movw	r1, #526
 1054 006c 0248     		ldr	r0, .L119
 1055 006e FFF7FEFF 		bl	assert_failed
 1056              	.LVL98:
 1057 0072 E8E7     		b	.L113
 1058              	.L118:
 541:Drivers/STM32F1xx_HAL_Driver/Src/stm32f1xx_hal_gpio.c ****   }
 1059              		.loc 1 541 0
 1060 0074 0020     		movs	r0, #0
 1061 0076 F5E7     		b	.L114
 1062              	.L120:
 1063              		.align	2
 1064              	.L119:
 1065 0078 00000000 		.word	.LC0
 1066              		.cfi_endproc
 1067              	.LFE71:
 1069              		.section	.text.HAL_GPIO_EXTI_Callback,"ax",%progbits
 1070              		.align	1
 1071              		.weak	HAL_GPIO_EXTI_Callback
 1072              		.syntax unified
 1073              		.thumb
 1074              		.thumb_func
 1075              		.fpu softvfp
 1077              	HAL_GPIO_EXTI_Callback:
 1078              	.LFB73:
 548:Drivers/STM32F1xx_HAL_Driver/Src/stm32f1xx_hal_gpio.c **** 
 549:Drivers/STM32F1xx_HAL_Driver/Src/stm32f1xx_hal_gpio.c **** /**
 550:Drivers/STM32F1xx_HAL_Driver/Src/stm32f1xx_hal_gpio.c ****   * @brief  This function handles EXTI interrupt request.
 551:Drivers/STM32F1xx_HAL_Driver/Src/stm32f1xx_hal_gpio.c ****   * @param  GPIO_Pin: Specifies the pins connected EXTI line
 552:Drivers/STM32F1xx_HAL_Driver/Src/stm32f1xx_hal_gpio.c ****   * @retval None
 553:Drivers/STM32F1xx_HAL_Driver/Src/stm32f1xx_hal_gpio.c ****   */
 554:Drivers/STM32F1xx_HAL_Driver/Src/stm32f1xx_hal_gpio.c **** void HAL_GPIO_EXTI_IRQHandler(uint16_t GPIO_Pin)
 555:Drivers/STM32F1xx_HAL_Driver/Src/stm32f1xx_hal_gpio.c **** {
 556:Drivers/STM32F1xx_HAL_Driver/Src/stm32f1xx_hal_gpio.c ****   /* EXTI line interrupt detected */
 557:Drivers/STM32F1xx_HAL_Driver/Src/stm32f1xx_hal_gpio.c ****   if (__HAL_GPIO_EXTI_GET_IT(GPIO_Pin) != RESET)
 558:Drivers/STM32F1xx_HAL_Driver/Src/stm32f1xx_hal_gpio.c ****   {
 559:Drivers/STM32F1xx_HAL_Driver/Src/stm32f1xx_hal_gpio.c ****     __HAL_GPIO_EXTI_CLEAR_IT(GPIO_Pin);
 560:Drivers/STM32F1xx_HAL_Driver/Src/stm32f1xx_hal_gpio.c ****     HAL_GPIO_EXTI_Callback(GPIO_Pin);
ARM GAS  /var/folders/xw/ncjdtmf133b976k652zsj0500000gn/T//cc8MC9bm.s 			page 31


 561:Drivers/STM32F1xx_HAL_Driver/Src/stm32f1xx_hal_gpio.c ****   }
 562:Drivers/STM32F1xx_HAL_Driver/Src/stm32f1xx_hal_gpio.c **** }
 563:Drivers/STM32F1xx_HAL_Driver/Src/stm32f1xx_hal_gpio.c **** 
 564:Drivers/STM32F1xx_HAL_Driver/Src/stm32f1xx_hal_gpio.c **** /**
 565:Drivers/STM32F1xx_HAL_Driver/Src/stm32f1xx_hal_gpio.c ****   * @brief  EXTI line detection callbacks.
 566:Drivers/STM32F1xx_HAL_Driver/Src/stm32f1xx_hal_gpio.c ****   * @param  GPIO_Pin: Specifies the pins connected EXTI line
 567:Drivers/STM32F1xx_HAL_Driver/Src/stm32f1xx_hal_gpio.c ****   * @retval None
 568:Drivers/STM32F1xx_HAL_Driver/Src/stm32f1xx_hal_gpio.c ****   */
 569:Drivers/STM32F1xx_HAL_Driver/Src/stm32f1xx_hal_gpio.c **** __weak void HAL_GPIO_EXTI_Callback(uint16_t GPIO_Pin)
 570:Drivers/STM32F1xx_HAL_Driver/Src/stm32f1xx_hal_gpio.c **** {
 1079              		.loc 1 570 0
 1080              		.cfi_startproc
 1081              		@ args = 0, pretend = 0, frame = 0
 1082              		@ frame_needed = 0, uses_anonymous_args = 0
 1083              		@ link register save eliminated.
 1084              	.LVL99:
 571:Drivers/STM32F1xx_HAL_Driver/Src/stm32f1xx_hal_gpio.c ****   /* Prevent unused argument(s) compilation warning */
 572:Drivers/STM32F1xx_HAL_Driver/Src/stm32f1xx_hal_gpio.c ****   UNUSED(GPIO_Pin);
 573:Drivers/STM32F1xx_HAL_Driver/Src/stm32f1xx_hal_gpio.c ****   /* NOTE: This function Should not be modified, when the callback is needed,
 574:Drivers/STM32F1xx_HAL_Driver/Src/stm32f1xx_hal_gpio.c ****            the HAL_GPIO_EXTI_Callback could be implemented in the user file
 575:Drivers/STM32F1xx_HAL_Driver/Src/stm32f1xx_hal_gpio.c ****    */
 576:Drivers/STM32F1xx_HAL_Driver/Src/stm32f1xx_hal_gpio.c **** }
 1085              		.loc 1 576 0
 1086 0000 7047     		bx	lr
 1087              		.cfi_endproc
 1088              	.LFE73:
 1090              		.section	.text.HAL_GPIO_EXTI_IRQHandler,"ax",%progbits
 1091              		.align	1
 1092              		.global	HAL_GPIO_EXTI_IRQHandler
 1093              		.syntax unified
 1094              		.thumb
 1095              		.thumb_func
 1096              		.fpu softvfp
 1098              	HAL_GPIO_EXTI_IRQHandler:
 1099              	.LFB72:
 555:Drivers/STM32F1xx_HAL_Driver/Src/stm32f1xx_hal_gpio.c ****   /* EXTI line interrupt detected */
 1100              		.loc 1 555 0
 1101              		.cfi_startproc
 1102              		@ args = 0, pretend = 0, frame = 0
 1103              		@ frame_needed = 0, uses_anonymous_args = 0
 1104              	.LVL100:
 1105 0000 08B5     		push	{r3, lr}
 1106              	.LCFI11:
 1107              		.cfi_def_cfa_offset 8
 1108              		.cfi_offset 3, -8
 1109              		.cfi_offset 14, -4
 557:Drivers/STM32F1xx_HAL_Driver/Src/stm32f1xx_hal_gpio.c ****   {
 1110              		.loc 1 557 0
 1111 0002 054B     		ldr	r3, .L126
 1112 0004 5B69     		ldr	r3, [r3, #20]
 1113 0006 0342     		tst	r3, r0
 1114 0008 00D1     		bne	.L125
 1115              	.LVL101:
 1116              	.L122:
 562:Drivers/STM32F1xx_HAL_Driver/Src/stm32f1xx_hal_gpio.c **** 
 1117              		.loc 1 562 0
 1118 000a 08BD     		pop	{r3, pc}
ARM GAS  /var/folders/xw/ncjdtmf133b976k652zsj0500000gn/T//cc8MC9bm.s 			page 32


 1119              	.LVL102:
 1120              	.L125:
 559:Drivers/STM32F1xx_HAL_Driver/Src/stm32f1xx_hal_gpio.c ****     HAL_GPIO_EXTI_Callback(GPIO_Pin);
 1121              		.loc 1 559 0
 1122 000c 024B     		ldr	r3, .L126
 1123 000e 5861     		str	r0, [r3, #20]
 560:Drivers/STM32F1xx_HAL_Driver/Src/stm32f1xx_hal_gpio.c ****   }
 1124              		.loc 1 560 0
 1125 0010 FFF7FEFF 		bl	HAL_GPIO_EXTI_Callback
 1126              	.LVL103:
 562:Drivers/STM32F1xx_HAL_Driver/Src/stm32f1xx_hal_gpio.c **** 
 1127              		.loc 1 562 0
 1128 0014 F9E7     		b	.L122
 1129              	.L127:
 1130 0016 00BF     		.align	2
 1131              	.L126:
 1132 0018 00040140 		.word	1073808384
 1133              		.cfi_endproc
 1134              	.LFE72:
 1136              		.section	.rodata.HAL_GPIO_Init.str1.4,"aMS",%progbits,1
 1137              		.align	2
 1138              	.LC0:
 1139 0000 44726976 		.ascii	"Drivers/STM32F1xx_HAL_Driver/Src/stm32f1xx_hal_gpio"
 1139      6572732F 
 1139      53544D33 
 1139      32463178 
 1139      785F4841 
 1140 0033 2E6300   		.ascii	".c\000"
 1141              		.text
 1142              	.Letext0:
 1143              		.file 2 "/usr/local/Cellar/gcc-arm-none-eabi/20171218/arm-none-eabi/include/machine/_default_types
 1144              		.file 3 "/usr/local/Cellar/gcc-arm-none-eabi/20171218/arm-none-eabi/include/sys/_stdint.h"
 1145              		.file 4 "Drivers/CMSIS/Include/core_cm3.h"
 1146              		.file 5 "Drivers/CMSIS/Device/ST/STM32F1xx/Include/system_stm32f1xx.h"
 1147              		.file 6 "Drivers/CMSIS/Device/ST/STM32F1xx/Include/stm32f103xb.h"
 1148              		.file 7 "/usr/local/Cellar/gcc-arm-none-eabi/20171218/arm-none-eabi/include/sys/lock.h"
 1149              		.file 8 "/usr/local/Cellar/gcc-arm-none-eabi/20171218/arm-none-eabi/include/sys/_types.h"
 1150              		.file 9 "/usr/local/Cellar/gcc-arm-none-eabi/20171218/lib/gcc/arm-none-eabi/7.2.1/include/stddef.h
 1151              		.file 10 "/usr/local/Cellar/gcc-arm-none-eabi/20171218/arm-none-eabi/include/sys/reent.h"
 1152              		.file 11 "Drivers/CMSIS/Device/ST/STM32F1xx/Include/stm32f1xx.h"
 1153              		.file 12 "Drivers/STM32F1xx_HAL_Driver/Inc/stm32f1xx_hal_def.h"
 1154              		.file 13 "Drivers/STM32F1xx_HAL_Driver/Inc/stm32f1xx_hal_gpio.h"
 1155              		.file 14 "Inc/stm32f1xx_hal_conf.h"
ARM GAS  /var/folders/xw/ncjdtmf133b976k652zsj0500000gn/T//cc8MC9bm.s 			page 33

